libabsl_base.so.2301.0.0:_ZN4absl12lts_2023012513base_internal10AtomicHookIPFvPKvlEE13DummyFunctionES4_l
libabsl_base.so.2301.0.0:_ZN4absl12lts_2023012513base_internal12GetCachedTIDEv
libabsl_base.so.2301.0.0:_ZN4absl12lts_2023012513base_internal16CycleClockSource8RegisterEPFlvE
libabsl_base.so.2301.0.0:_ZN4absl12lts_2023012513base_internal18UnscaledCycleClock9FrequencyEv
libabsl_base.so.2301.0.0:_ZN4absl12lts_2023012513base_internal19NominalCPUFrequencyEv
libabsl_base.so.2301.0.0:_ZN4absl12lts_2023012513base_internal24RegisterSpinLockProfilerEPFvPKvlE
libabsl_base.so.2301.0.0:_ZN4absl12lts_2023012513base_internal24SetCurrentThreadIdentityEPNS1_14ThreadIdentityEPFvPvE
libabsl_base.so.2301.0.0:_ZN4absl12lts_2023012513base_internal26ClearCurrentThreadIdentityEv
libabsl_base.so.2301.0.0:_ZN4absl12lts_2023012513base_internal30CurrentThreadIdentityIfPresentEv
libabsl_base.so.2301.0.0:_ZN4absl12lts_2023012513base_internal6GetTIDEv
libabsl_base.so.2301.0.0:_ZN4absl12lts_2023012513base_internal7NumCPUsEv
libabsl_base.so.2301.0.0:_ZN4absl12lts_2023012513base_internal8SpinLock10SlowUnlockEj
libabsl_base.so.2301.0.0:_ZN4absl12lts_2023012513base_internal8SpinLock16DecodeWaitCyclesEj
libabsl_base.so.2301.0.0:_ZN4absl12lts_2023012513base_internal8SpinLock16EncodeWaitCyclesEll
libabsl_base.so.2301.0.0:_ZN4absl12lts_2023012513base_internal8SpinLock8SlowLockEv
libabsl_base.so.2301.0.0:_ZN4absl12lts_2023012513base_internal8SpinLock8SpinLoopEv
libabsl_base.so.2301.0.0:_ZN4absl12lts_2023012513base_internal8SpinLockC1ENS1_14SchedulingModeE
libabsl_base.so.2301.0.0:_ZN4absl12lts_2023012513base_internal8SpinLockC2ENS1_14SchedulingModeE
libabsl_city.so.2301.0.0:_ZN4absl12lts_2023012513hash_internal10CityHash32EPKcm
libabsl_city.so.2301.0.0:_ZN4absl12lts_2023012513hash_internal10CityHash64EPKcm
libabsl_city.so.2301.0.0:_ZN4absl12lts_2023012513hash_internal18CityHash64WithSeedEPKcmm
libabsl_city.so.2301.0.0:_ZN4absl12lts_2023012513hash_internal19CityHash64WithSeedsEPKcmmm
libabsl_civil_time.so.2301.0.0:_ZN4absl12lts_2023012513time_internal4cctz6detaillsERSoNS3_7weekdayE
libabsl_civil_time.so.2301.0.0:_ZN4absl12lts_2023012513time_internal4cctz6detaillsERSoRKNS3_10civil_timeINS3_10minute_tagEEE
libabsl_civil_time.so.2301.0.0:_ZN4absl12lts_2023012513time_internal4cctz6detaillsERSoRKNS3_10civil_timeINS3_10second_tagEEE
libabsl_civil_time.so.2301.0.0:_ZN4absl12lts_2023012513time_internal4cctz6detaillsERSoRKNS3_10civil_timeINS3_7day_tagEEE
libabsl_civil_time.so.2301.0.0:_ZN4absl12lts_2023012513time_internal4cctz6detaillsERSoRKNS3_10civil_timeINS3_8hour_tagEEE
libabsl_civil_time.so.2301.0.0:_ZN4absl12lts_2023012513time_internal4cctz6detaillsERSoRKNS3_10civil_timeINS3_8year_tagEEE
libabsl_civil_time.so.2301.0.0:_ZN4absl12lts_2023012513time_internal4cctz6detaillsERSoRKNS3_10civil_timeINS3_9month_tagEEE
libabsl_cord.so.2301.0.0:_ZN4absl12lts_2023012513cord_internal23GetEstimatedMemoryUsageEPKNS1_7CordRepE
libabsl_cord.so.2301.0.0:_ZN4absl12lts_2023012513cord_internal25InitializeCordRepExternalESt17basic_string_viewIcSt11char_traitsIcEEPNS1_15CordRepExternalE
libabsl_cord.so.2301.0.0:_ZN4absl12lts_2023012513cord_internal32GetEstimatedFairShareMemoryUsageEPKNS1_7CordRepE
libabsl_cord.so.2301.0.0:_ZN4absl12lts_2023012516CopyCordToStringERKNS0_4CordEPNSt7__cxx1112basic_stringIcSt11char_traitsIcESaIcEEE
libabsl_cord.so.2301.0.0:_ZN4absl12lts_2023012516strings_internal14CordTestAccess11LengthToTagEm
libabsl_cord.so.2301.0.0:_ZN4absl12lts_2023012516strings_internal14CordTestAccess12FlatOverheadEv
libabsl_cord.so.2301.0.0:_ZN4absl12lts_2023012516strings_internal14CordTestAccess13MaxFlatLengthEv
libabsl_cord.so.2301.0.0:_ZN4absl12lts_2023012516strings_internal14CordTestAccess15FlatTagToLengthEh
libabsl_cord.so.2301.0.0:_ZN4absl12lts_2023012516strings_internal14CordTestAccess21SizeofCordRepExternalEv
libabsl_cord.so.2301.0.0:_ZN4absl12lts_2023012516strings_internal14CordTestAccess22SizeofCordRepSubstringEv
libabsl_cord.so.2301.0.0:_ZN4absl12lts_202301254Cord10GetFlatAuxEPNS0_13cord_internal7CordRepEPSt17basic_string_viewIcSt11char_traitsIcEE
libabsl_cord.so.2301.0.0:_ZN4absl12lts_202301254Cord12PrependArrayESt17basic_string_viewIcSt11char_traitsIcEENS0_13cord_internal18CordzUpdateTracker16MethodIdentifierE
libabsl_cord.so.2301.0.0:_ZN4absl12lts_202301254Cord12RemovePrefixEm
libabsl_cord.so.2301.0.0:_ZN4absl12lts_202301254Cord12RemoveSuffixEm
libabsl_cord.so.2301.0.0:_ZN4absl12lts_202301254Cord13AppendPreciseESt17basic_string_viewIcSt11char_traitsIcEENS0_13cord_internal18CordzUpdateTracker16MethodIdentifierE
libabsl_cord.so.2301.0.0:_ZN4absl12lts_202301254Cord13ChunkIterator19AdvanceAndReadBytesEm
libabsl_cord.so.2301.0.0:_ZN4absl12lts_202301254Cord14PrependPreciseESt17basic_string_viewIcSt11char_traitsIcEENS0_13cord_internal18CordzUpdateTracker16MethodIdentifierE
libabsl_cord.so.2301.0.0:_ZN4absl12lts_202301254Cord15DestroyCordSlowEv
libabsl_cord.so.2301.0.0:_ZN4absl12lts_202301254Cord15FlattenSlowPathEv
libabsl_cord.so.2301.0.0:_ZN4absl12lts_202301254Cord15ForEachChunkAuxEPNS0_13cord_internal7CordRepENS0_11FunctionRefIFvSt17basic_string_viewIcSt11char_traitsIcEEEEE
libabsl_cord.so.2301.0.0:_ZN4absl12lts_202301254Cord15SetCrcCordStateENS0_12crc_internal12CrcCordStateE
libabsl_cord.so.2301.0.0:_ZN4absl12lts_202301254Cord17AssignLargeStringEONSt7__cxx1112basic_stringIcSt11char_traitsIcESaIcEEE
libabsl_cord.so.2301.0.0:_ZN4absl12lts_202301254Cord19SetExpectedChecksumEj
libabsl_cord.so.2301.0.0:_ZN4absl12lts_202301254Cord23GetAppendBufferSlowPathEmmm
libabsl_cord.so.2301.0.0:_ZN4absl12lts_202301254Cord5ClearEv
libabsl_cord.so.2301.0.0:_ZN4absl12lts_202301254Cord6AppendEOS1_
libabsl_cord.so.2301.0.0:_ZN4absl12lts_202301254Cord6AppendERKS1_
libabsl_cord.so.2301.0.0:_ZN4absl12lts_202301254Cord6AppendINSt7__cxx1112basic_stringIcSt11char_traitsIcESaIcEEELi0EEEvOT_
libabsl_cord.so.2301.0.0:_ZN4absl12lts_202301254Cord7PrependERKS1_
libabsl_cord.so.2301.0.0:_ZN4absl12lts_202301254Cord7PrependINSt7__cxx1112basic_stringIcSt11char_traitsIcESaIcEEELi0EEEvOT_
libabsl_cord.so.2301.0.0:_ZN4absl12lts_202301254Cord9InlineRep10AppendTreeEPNS0_13cord_internal7CordRepENS3_18CordzUpdateTracker16MethodIdentifierE
libabsl_cord.so.2301.0.0:_ZN4absl12lts_202301254Cord9InlineRep10AssignSlowERKS2_
libabsl_cord.so.2301.0.0:_ZN4absl12lts_202301254Cord9InlineRep11AppendArrayESt17basic_string_viewIcSt11char_traitsIcEENS0_13cord_internal18CordzUpdateTracker16MethodIdentifierE
libabsl_cord.so.2301.0.0:_ZN4absl12lts_202301254Cord9InlineRep11PrependTreeEPNS0_13cord_internal7CordRepENS3_18CordzUpdateTracker16MethodIdentifierE
libabsl_cord.so.2301.0.0:_ZN4absl12lts_202301254Cord9InlineRep16AppendTreeToTreeEPNS0_13cord_internal7CordRepENS3_18CordzUpdateTracker16MethodIdentifierE
libabsl_cord.so.2301.0.0:_ZN4absl12lts_202301254Cord9InlineRep17PrependTreeToTreeEPNS0_13cord_internal7CordRepENS3_18CordzUpdateTracker16MethodIdentifierE
libabsl_cord.so.2301.0.0:_ZN4absl12lts_202301254Cord9InlineRep19AppendTreeToInlinedEPNS0_13cord_internal7CordRepENS3_18CordzUpdateTracker16MethodIdentifierE
libabsl_cord.so.2301.0.0:_ZN4absl12lts_202301254Cord9InlineRep20PrependTreeToInlinedEPNS0_13cord_internal7CordRepENS3_18CordzUpdateTracker16MethodIdentifierE
libabsl_cord.so.2301.0.0:_ZN4absl12lts_202301254Cord9InlineRep9UnrefTreeEv
libabsl_cord.so.2301.0.0:_ZN4absl12lts_202301254CordC1ESt17basic_string_viewIcSt11char_traitsIcEENS0_13cord_internal18CordzUpdateTracker16MethodIdentifierE
libabsl_cord.so.2301.0.0:_ZN4absl12lts_202301254CordC1INSt7__cxx1112basic_stringIcSt11char_traitsIcESaIcEEELi0EEEOT_
libabsl_cord.so.2301.0.0:_ZN4absl12lts_202301254CordC2ESt17basic_string_viewIcSt11char_traitsIcEENS0_13cord_internal18CordzUpdateTracker16MethodIdentifierE
libabsl_cord.so.2301.0.0:_ZN4absl12lts_202301254CordC2INSt7__cxx1112basic_stringIcSt11char_traitsIcESaIcEEELi0EEEOT_
libabsl_cord.so.2301.0.0:_ZN4absl12lts_202301254CordaSESt17basic_string_viewIcSt11char_traitsIcEE
libabsl_cord.so.2301.0.0:_ZN4absl12lts_20230125lsERSoRKNS0_4CordE
libabsl_cord.so.2301.0.0:_ZNK4absl12lts_202301254Cord10EqualsImplERKS1_m
libabsl_cord.so.2301.0.0:_ZNK4absl12lts_202301254Cord10EqualsImplESt17basic_string_viewIcSt11char_traitsIcEEm
libabsl_cord.so.2301.0.0:_ZNK4absl12lts_202301254Cord11CompareImplERKS1_
libabsl_cord.so.2301.0.0:_ZNK4absl12lts_202301254Cord16ExpectedChecksumEv
libabsl_cord.so.2301.0.0:_ZNK4absl12lts_202301254Cord19CopyToArraySlowPathEPc
libabsl_cord.so.2301.0.0:_ZNK4absl12lts_202301254Cord20MaybeGetCrcCordStateEv
libabsl_cord.so.2301.0.0:_ZNK4absl12lts_202301254Cord7CompareESt17basic_string_viewIcSt11char_traitsIcEE
libabsl_cord.so.2301.0.0:_ZNK4absl12lts_202301254Cord7SubcordEmm
libabsl_cord.so.2301.0.0:_ZNK4absl12lts_202301254Cord8EndsWithERKS1_
libabsl_cord.so.2301.0.0:_ZNK4absl12lts_202301254Cord8EndsWithESt17basic_string_viewIcSt11char_traitsIcEE
libabsl_cord.so.2301.0.0:_ZNK4absl12lts_202301254CordcvNSt7__cxx1112basic_stringIcSt11char_traitsIcESaIcEEEEv
libabsl_cord.so.2301.0.0:_ZNK4absl12lts_202301254CordixEm
libabsl_cord_internal.so.2301.0.0:_ZN4absl12lts_2023012513cord_internal10CordRepCrc3NewEPNS1_7CordRepENS0_12crc_internal12CrcCordStateE
libabsl_cord_internal.so.2301.0.0:_ZN4absl12lts_2023012513cord_internal10CordRepCrc7DestroyEPS2_
libabsl_cord_internal.so.2301.0.0:_ZN4absl12lts_2023012513cord_internal11CordRepRing10AppendLeafEPS2_PNS1_7CordRepEmm
libabsl_cord_internal.so.2301.0.0:_ZN4absl12lts_2023012513cord_internal11CordRepRing10AppendSlowEPS2_PNS1_7CordRepE
libabsl_cord_internal.so.2301.0.0:_ZN4absl12lts_2023012513cord_internal11CordRepRing10CreateSlowEPNS1_7CordRepEm
libabsl_cord_internal.so.2301.0.0:_ZN4absl12lts_2023012513cord_internal11CordRepRing11PrependLeafEPS2_PNS1_7CordRepEmm
libabsl_cord_internal.so.2301.0.0:_ZN4absl12lts_2023012513cord_internal11CordRepRing11PrependSlowEPS2_PNS1_7CordRepE
libabsl_cord_internal.so.2301.0.0:_ZN4absl12lts_2023012513cord_internal11CordRepRing12RemovePrefixEPS2_mm
libabsl_cord_internal.so.2301.0.0:_ZN4absl12lts_2023012513cord_internal11CordRepRing12RemoveSuffixEPS2_mm
libabsl_cord_internal.so.2301.0.0:_ZN4absl12lts_2023012513cord_internal11CordRepRing13AddDataOffsetEjm
libabsl_cord_internal.so.2301.0.0:_ZN4absl12lts_2023012513cord_internal11CordRepRing14CreateFromLeafEPNS1_7CordRepEmmm
libabsl_cord_internal.so.2301.0.0:_ZN4absl12lts_2023012513cord_internal11CordRepRing15GetAppendBufferEm
libabsl_cord_internal.so.2301.0.0:_ZN4absl12lts_2023012513cord_internal11CordRepRing16GetPrependBufferEm
libabsl_cord_internal.so.2301.0.0:_ZN4absl12lts_2023012513cord_internal11CordRepRing21SetCapacityForTestingEm
libabsl_cord_internal.so.2301.0.0:_ZN4absl12lts_2023012513cord_internal11CordRepRing3NewEmm
libabsl_cord_internal.so.2301.0.0:_ZN4absl12lts_2023012513cord_internal11CordRepRing4CopyEPS2_jjm
libabsl_cord_internal.so.2301.0.0:_ZN4absl12lts_2023012513cord_internal11CordRepRing6AppendEPS2_PNS1_7CordRepE
libabsl_cord_internal.so.2301.0.0:_ZN4absl12lts_2023012513cord_internal11CordRepRing6AppendEPS2_St17basic_string_viewIcSt11char_traitsIcEEm
libabsl_cord_internal.so.2301.0.0:_ZN4absl12lts_2023012513cord_internal11CordRepRing6CreateEPNS1_7CordRepEm
libabsl_cord_internal.so.2301.0.0:_ZN4absl12lts_2023012513cord_internal11CordRepRing6DeleteEPS2_
libabsl_cord_internal.so.2301.0.0:_ZN4absl12lts_2023012513cord_internal11CordRepRing7DestroyEPS2_
libabsl_cord_internal.so.2301.0.0:_ZN4absl12lts_2023012513cord_internal11CordRepRing7MutableEPS2_m
libabsl_cord_internal.so.2301.0.0:_ZN4absl12lts_2023012513cord_internal11CordRepRing7PrependEPS2_PNS1_7CordRepE
libabsl_cord_internal.so.2301.0.0:_ZN4absl12lts_2023012513cord_internal11CordRepRing7PrependEPS2_St17basic_string_viewIcSt11char_traitsIcEEm
libabsl_cord_internal.so.2301.0.0:_ZN4absl12lts_2023012513cord_internal11CordRepRing7SubRingEPS2_mmm
libabsl_cord_internal.so.2301.0.0:_ZN4absl12lts_2023012513cord_internal11CordRepRing9SubLengthEjm
libabsl_cord_internal.so.2301.0.0:_ZN4absl12lts_2023012513cord_internal12CordRepBtree10AddCordRepILNS2_8EdgeTypeE0EEEPS2_S5_PNS1_7CordRepE
libabsl_cord_internal.so.2301.0.0:_ZN4absl12lts_2023012513cord_internal12CordRepBtree10AddCordRepILNS2_8EdgeTypeE1EEEPS2_S5_PNS1_7CordRepE
libabsl_cord_internal.so.2301.0.0:_ZN4absl12lts_2023012513cord_internal12CordRepBtree10AppendSlowEPS2_PNS1_7CordRepE
libabsl_cord_internal.so.2301.0.0:_ZN4absl12lts_2023012513cord_internal12CordRepBtree10CopyPrefixEmb
libabsl_cord_internal.so.2301.0.0:_ZN4absl12lts_2023012513cord_internal12CordRepBtree10CopySuffixEm
libabsl_cord_internal.so.2301.0.0:_ZN4absl12lts_2023012513cord_internal12CordRepBtree10CreateSlowEPNS1_7CordRepE
libabsl_cord_internal.so.2301.0.0:_ZN4absl12lts_2023012513cord_internal12CordRepBtree10MergeTreesEPS2_S3_
libabsl_cord_internal.so.2301.0.0:_ZN4absl12lts_2023012513cord_internal12CordRepBtree11PrependSlowEPS2_PNS1_7CordRepE
libabsl_cord_internal.so.2301.0.0:_ZN4absl12lts_2023012513cord_internal12CordRepBtree12ExtractFrontEPS2_
libabsl_cord_internal.so.2301.0.0:_ZN4absl12lts_2023012513cord_internal12CordRepBtree12RemoveSuffixEPS2_m
libabsl_cord_internal.so.2301.0.0:_ZN4absl12lts_2023012513cord_internal12CordRepBtree14ConsumeBeginToEPS2_mm
libabsl_cord_internal.so.2301.0.0:_ZN4absl12lts_2023012513cord_internal12CordRepBtree19ExtractAppendBufferEPS2_m
libabsl_cord_internal.so.2301.0.0:_ZN4absl12lts_2023012513cord_internal12CordRepBtree19GetAppendBufferSlowEm
libabsl_cord_internal.so.2301.0.0:_ZN4absl12lts_2023012513cord_internal12CordRepBtree4DumpEPKNS1_7CordRepERSo
libabsl_cord_internal.so.2301.0.0:_ZN4absl12lts_2023012513cord_internal12CordRepBtree4DumpEPKNS1_7CordRepESt17basic_string_viewIcSt11char_traitsIcEERSo
libabsl_cord_internal.so.2301.0.0:_ZN4absl12lts_2023012513cord_internal12CordRepBtree4DumpEPKNS1_7CordRepESt17basic_string_viewIcSt11char_traitsIcEEbRSo
libabsl_cord_internal.so.2301.0.0:_ZN4absl12lts_2023012513cord_internal12CordRepBtree6AppendEPS2_St17basic_string_viewIcSt11char_traitsIcEEm
libabsl_cord_internal.so.2301.0.0:_ZN4absl12lts_2023012513cord_internal12CordRepBtree7AddDataILNS2_8EdgeTypeE0EEEPS2_S5_St17basic_string_viewIcSt11char_traitsIcEEm
libabsl_cord_internal.so.2301.0.0:_ZN4absl12lts_2023012513cord_internal12CordRepBtree7AddDataILNS2_8EdgeTypeE0EEESt17basic_string_viewIcSt11char_traitsIcEES8_m
libabsl_cord_internal.so.2301.0.0:_ZN4absl12lts_2023012513cord_internal12CordRepBtree7AddDataILNS2_8EdgeTypeE1EEEPS2_S5_St17basic_string_viewIcSt11char_traitsIcEEm
libabsl_cord_internal.so.2301.0.0:_ZN4absl12lts_2023012513cord_internal12CordRepBtree7AddDataILNS2_8EdgeTypeE1EEESt17basic_string_viewIcSt11char_traitsIcEES8_m
libabsl_cord_internal.so.2301.0.0:_ZN4absl12lts_2023012513cord_internal12CordRepBtree7DestroyEPS2_
libabsl_cord_internal.so.2301.0.0:_ZN4absl12lts_2023012513cord_internal12CordRepBtree7IsValidEPKS2_b
libabsl_cord_internal.so.2301.0.0:_ZN4absl12lts_2023012513cord_internal12CordRepBtree7NewLeafILNS2_8EdgeTypeE0EEEPS2_St17basic_string_viewIcSt11char_traitsIcEEm
libabsl_cord_internal.so.2301.0.0:_ZN4absl12lts_2023012513cord_internal12CordRepBtree7NewLeafILNS2_8EdgeTypeE1EEEPS2_St17basic_string_viewIcSt11char_traitsIcEEm
libabsl_cord_internal.so.2301.0.0:_ZN4absl12lts_2023012513cord_internal12CordRepBtree7PrependEPS2_St17basic_string_viewIcSt11char_traitsIcEEm
libabsl_cord_internal.so.2301.0.0:_ZN4absl12lts_2023012513cord_internal12CordRepBtree7RebuildEPPS2_S3_b
libabsl_cord_internal.so.2301.0.0:_ZN4absl12lts_2023012513cord_internal12CordRepBtree7RebuildEPS2_
libabsl_cord_internal.so.2301.0.0:_ZN4absl12lts_2023012513cord_internal12CordRepBtree7SubTreeEmm
libabsl_cord_internal.so.2301.0.0:_ZN4absl12lts_2023012513cord_internal14ReverseConsumeEPNS1_7CordRepENS0_11FunctionRefIFvS3_mmEEE
libabsl_cord_internal.so.2301.0.0:_ZN4absl12lts_2023012513cord_internal16LogFatalNodeTypeEPNS1_7CordRepE
libabsl_cord_internal.so.2301.0.0:_ZN4absl12lts_2023012513cord_internal18CordRepBtreeReader4ReadEmmRPNS1_7CordRepE
libabsl_cord_internal.so.2301.0.0:_ZN4absl12lts_2023012513cord_internal21CordRepBtreeNavigator4ReadEmm
libabsl_cord_internal.so.2301.0.0:_ZN4absl12lts_2023012513cord_internal21CordRepBtreeNavigator4SkipEm
libabsl_cord_internal.so.2301.0.0:_ZN4absl12lts_2023012513cord_internal7ConsumeEPNS1_7CordRepENS0_11FunctionRefIFvS3_mmEEE
libabsl_cord_internal.so.2301.0.0:_ZN4absl12lts_2023012513cord_internal7CordRep7DestroyEPS2_
libabsl_cord_internal.so.2301.0.0:_ZN4absl12lts_2023012513cord_internallsERSoRKNS1_11CordRepRingE
libabsl_cord_internal.so.2301.0.0:_ZNK4absl12lts_2023012513cord_internal11CordRepRing12FindTailSlowEjm
libabsl_cord_internal.so.2301.0.0:_ZNK4absl12lts_2023012513cord_internal11CordRepRing12GetCharacterEm
libabsl_cord_internal.so.2301.0.0:_ZNK4absl12lts_2023012513cord_internal11CordRepRing7IsValidERSo
libabsl_cord_internal.so.2301.0.0:_ZNK4absl12lts_2023012513cord_internal11CordRepRing8FindSlowEjm
libabsl_cord_internal.so.2301.0.0:_ZNK4absl12lts_2023012513cord_internal12CordRepBtree12GetCharacterEm
libabsl_cord_internal.so.2301.0.0:_ZNK4absl12lts_2023012513cord_internal12CordRepBtree6IsFlatEPSt17basic_string_viewIcSt11char_traitsIcEE
libabsl_cord_internal.so.2301.0.0:_ZNK4absl12lts_2023012513cord_internal12CordRepBtree6IsFlatEmmPSt17basic_string_viewIcSt11char_traitsIcEE
libabsl_cordz_functions.so.2301.0.0:_ZN4absl12lts_2023012513cord_internal23get_cordz_mean_intervalEv
libabsl_cordz_functions.so.2301.0.0:_ZN4absl12lts_2023012513cord_internal23set_cordz_mean_intervalEi
libabsl_cordz_functions.so.2301.0.0:_ZN4absl12lts_2023012513cord_internal25cordz_should_profile_slowEv
libabsl_cordz_functions.so.2301.0.0:_ZN4absl12lts_2023012513cord_internal33cordz_set_next_sample_for_testingEl
libabsl_cordz_handle.so.2301.0.0:_ZN4absl12lts_2023012513cord_internal11CordzHandle25DiagnosticsGetDeleteQueueEv
libabsl_cordz_handle.so.2301.0.0:_ZN4absl12lts_2023012513cord_internal11CordzHandle41DiagnosticsGetSafeToInspectDeletedHandlesEv
libabsl_cordz_handle.so.2301.0.0:_ZN4absl12lts_2023012513cord_internal11CordzHandle6DeleteEPS2_
libabsl_cordz_handle.so.2301.0.0:_ZN4absl12lts_2023012513cord_internal11CordzHandleC1Eb
libabsl_cordz_handle.so.2301.0.0:_ZN4absl12lts_2023012513cord_internal11CordzHandleC2Eb
libabsl_cordz_handle.so.2301.0.0:_ZN4absl12lts_2023012513cord_internal11CordzHandleD0Ev
libabsl_cordz_handle.so.2301.0.0:_ZN4absl12lts_2023012513cord_internal11CordzHandleD1Ev
libabsl_cordz_handle.so.2301.0.0:_ZN4absl12lts_2023012513cord_internal11CordzHandleD2Ev
libabsl_cordz_handle.so.2301.0.0:_ZNK4absl12lts_2023012513cord_internal11CordzHandle12SafeToDeleteEv
libabsl_cordz_handle.so.2301.0.0:_ZNK4absl12lts_2023012513cord_internal11CordzHandle32DiagnosticsHandleIsSafeToInspectEPKS2_
libabsl_cordz_info.so.2301.0.0:_ZN4absl12lts_2023012513cord_internal9CordzInfo15FillParentStackEPKS2_PPv
libabsl_cordz_info.so.2301.0.0:_ZN4absl12lts_2023012513cord_internal9CordzInfo15GetParentMethodEPKS2_
libabsl_cordz_info.so.2301.0.0:_ZN4absl12lts_2023012513cord_internal9CordzInfo18MaybeTrackCordImplERNS1_10InlineDataERKS3_NS1_18CordzUpdateTracker16MethodIdentifierE
libabsl_cordz_info.so.2301.0.0:_ZN4absl12lts_2023012513cord_internal9CordzInfo4HeadERKNS1_13CordzSnapshotE
libabsl_cordz_info.so.2301.0.0:_ZN4absl12lts_2023012513cord_internal9CordzInfo4LockENS1_18CordzUpdateTracker16MethodIdentifierE
libabsl_cordz_info.so.2301.0.0:_ZN4absl12lts_2023012513cord_internal9CordzInfo5TrackEv
libabsl_cordz_info.so.2301.0.0:_ZN4absl12lts_2023012513cord_internal9CordzInfo6UnlockEv
libabsl_cordz_info.so.2301.0.0:_ZN4absl12lts_2023012513cord_internal9CordzInfo7UntrackEv
libabsl_cordz_info.so.2301.0.0:_ZN4absl12lts_2023012513cord_internal9CordzInfo9TrackCordERNS1_10InlineDataENS1_18CordzUpdateTracker16MethodIdentifierE
libabsl_cordz_info.so.2301.0.0:_ZN4absl12lts_2023012513cord_internal9CordzInfo9TrackCordERNS1_10InlineDataERKS3_NS1_18CordzUpdateTracker16MethodIdentifierE
libabsl_cordz_info.so.2301.0.0:_ZN4absl12lts_2023012513cord_internal9CordzInfoC1EPNS1_7CordRepEPKS2_NS1_18CordzUpdateTracker16MethodIdentifierE
libabsl_cordz_info.so.2301.0.0:_ZN4absl12lts_2023012513cord_internal9CordzInfoC2EPNS1_7CordRepEPKS2_NS1_18CordzUpdateTracker16MethodIdentifierE
libabsl_cordz_info.so.2301.0.0:_ZN4absl12lts_2023012513cord_internal9CordzInfoD0Ev
libabsl_cordz_info.so.2301.0.0:_ZN4absl12lts_2023012513cord_internal9CordzInfoD1Ev
libabsl_cordz_info.so.2301.0.0:_ZN4absl12lts_2023012513cord_internal9CordzInfoD2Ev
libabsl_cordz_info.so.2301.0.0:_ZNK4absl12lts_2023012513cord_internal9CordzInfo14GetParentStackEv
libabsl_cordz_info.so.2301.0.0:_ZNK4absl12lts_2023012513cord_internal9CordzInfo18GetCordzStatisticsEv
libabsl_cordz_info.so.2301.0.0:_ZNK4absl12lts_2023012513cord_internal9CordzInfo4NextERKNS1_13CordzSnapshotE
libabsl_cordz_info.so.2301.0.0:_ZNK4absl12lts_2023012513cord_internal9CordzInfo8GetStackEv
libabsl_cordz_sample_token.so.2301.0.0:_ZN4absl12lts_2023012513cord_internal16CordzSampleToken8IteratorC1EPKS2_
libabsl_cordz_sample_token.so.2301.0.0:_ZN4absl12lts_2023012513cord_internal16CordzSampleToken8IteratorC2EPKS2_
libabsl_cordz_sample_token.so.2301.0.0:_ZN4absl12lts_2023012513cord_internal16CordzSampleToken8IteratorppEi
libabsl_cordz_sample_token.so.2301.0.0:_ZN4absl12lts_2023012513cord_internal16CordzSampleToken8IteratorppEv
libabsl_cordz_sample_token.so.2301.0.0:_ZN4absl12lts_2023012513cord_internaleqERKNS1_16CordzSampleToken8IteratorES5_
libabsl_cordz_sample_token.so.2301.0.0:_ZN4absl12lts_2023012513cord_internalneERKNS1_16CordzSampleToken8IteratorES5_
libabsl_cordz_sample_token.so.2301.0.0:_ZNK4absl12lts_2023012513cord_internal16CordzSampleToken8IteratordeEv
libabsl_cordz_sample_token.so.2301.0.0:_ZNK4absl12lts_2023012513cord_internal16CordzSampleToken8IteratorptEv
libabsl_crc32c.so.2301.0.0:_ZN4absl12lts_2023012512ConcatCrc32cENS0_8crc32c_tES1_m
libabsl_crc32c.so.2301.0.0:_ZN4absl12lts_2023012512MemcpyCrc32cEPvPKvmNS0_8crc32c_tE
libabsl_crc32c.so.2301.0.0:_ZN4absl12lts_2023012512crc_internal20ExtendCrc32cInternalENS0_8crc32c_tESt17basic_string_viewIcSt11char_traitsIcEE
libabsl_crc32c.so.2301.0.0:_ZN4absl12lts_2023012512crc_internal22UnextendCrc32cByZeroesENS0_8crc32c_tEm
libabsl_crc32c.so.2301.0.0:_ZN4absl12lts_2023012512crc_internal9CrcMemcpy13GetTestEngineEii
libabsl_crc32c.so.2301.0.0:_ZN4absl12lts_2023012512crc_internal9CrcMemcpy22GetArchSpecificEnginesEv
libabsl_crc32c.so.2301.0.0:_ZN4absl12lts_2023012513ComputeCrc32cESt17basic_string_viewIcSt11char_traitsIcEE
libabsl_crc32c.so.2301.0.0:_ZN4absl12lts_2023012518RemoveCrc32cPrefixENS0_8crc32c_tES1_m
libabsl_crc32c.so.2301.0.0:_ZN4absl12lts_2023012518RemoveCrc32cSuffixENS0_8crc32c_tES1_m
libabsl_crc32c.so.2301.0.0:_ZN4absl12lts_2023012520ExtendCrc32cByZeroesENS0_8crc32c_tEm
libabsl_crc32c.so.2301.0.0:_ZNK4absl12lts_2023012512crc_internal23FallbackCrcMemcpyEngine7ComputeEPvPKvmNS0_8crc32c_tE
libabsl_crc32c.so.2301.0.0:_ZNK4absl12lts_2023012512crc_internal26CrcNonTemporalMemcpyEngine7ComputeEPvPKvmNS0_8crc32c_tE
libabsl_crc32c.so.2301.0.0:_ZNK4absl12lts_2023012512crc_internal29CrcNonTemporalMemcpyAVXEngine7ComputeEPvPKvmNS0_8crc32c_tE
libabsl_crc_cord_state.so.2301.0.0:_ZN4absl12lts_2023012512crc_internal12CrcCordState17RefSharedEmptyRepEv
libabsl_crc_cord_state.so.2301.0.0:_ZN4absl12lts_2023012512crc_internal12CrcCordState6PoisonEv
libabsl_crc_cord_state.so.2301.0.0:_ZN4absl12lts_2023012512crc_internal12CrcCordState9NormalizeEv
libabsl_crc_cord_state.so.2301.0.0:_ZN4absl12lts_2023012512crc_internal12CrcCordStateC1EOS2_
libabsl_crc_cord_state.so.2301.0.0:_ZN4absl12lts_2023012512crc_internal12CrcCordStateC1ERKS2_
libabsl_crc_cord_state.so.2301.0.0:_ZN4absl12lts_2023012512crc_internal12CrcCordStateC1Ev
libabsl_crc_cord_state.so.2301.0.0:_ZN4absl12lts_2023012512crc_internal12CrcCordStateC2EOS2_
libabsl_crc_cord_state.so.2301.0.0:_ZN4absl12lts_2023012512crc_internal12CrcCordStateC2ERKS2_
libabsl_crc_cord_state.so.2301.0.0:_ZN4absl12lts_2023012512crc_internal12CrcCordStateC2Ev
libabsl_crc_cord_state.so.2301.0.0:_ZN4absl12lts_2023012512crc_internal12CrcCordStateD1Ev
libabsl_crc_cord_state.so.2301.0.0:_ZN4absl12lts_2023012512crc_internal12CrcCordStateD2Ev
libabsl_crc_cord_state.so.2301.0.0:_ZN4absl12lts_2023012512crc_internal12CrcCordStateaSEOS2_
libabsl_crc_cord_state.so.2301.0.0:_ZN4absl12lts_2023012512crc_internal12CrcCordStateaSERKS2_
libabsl_crc_cord_state.so.2301.0.0:_ZNK4absl12lts_2023012512crc_internal12CrcCordState29NormalizedPrefixCrcAtNthChunkEm
libabsl_crc_cord_state.so.2301.0.0:_ZNK4absl12lts_2023012512crc_internal12CrcCordState8ChecksumEv
libabsl_crc_cpu_detect.so.2301.0.0:_ZN4absl12lts_2023012512crc_internal10GetCpuTypeEv
libabsl_crc_cpu_detect.so.2301.0.0:_ZN4absl12lts_2023012512crc_internal21SupportsArmCRC32PMULLEv
libabsl_crc_internal.so.2301.0.0:_ZN4absl12lts_2023012512crc_internal36NewCRC32AcceleratedX86ARMCombinedAllEv
libabsl_crc_internal.so.2301.0.0:_ZN4absl12lts_2023012512crc_internal36TryNewCRC32AcceleratedX86ARMCombinedEv
libabsl_crc_internal.so.2301.0.0:_ZN4absl12lts_2023012512crc_internal3CRC6ConcatEPjjm
libabsl_crc_internal.so.2301.0.0:_ZN4absl12lts_2023012512crc_internal3CRC6Crc32cEv
libabsl_crc_internal.so.2301.0.0:_ZN4absl12lts_2023012512crc_internal3CRCC1Ev
libabsl_crc_internal.so.2301.0.0:_ZN4absl12lts_2023012512crc_internal3CRCC2Ev
libabsl_crc_internal.so.2301.0.0:_ZN4absl12lts_2023012512crc_internal3CRCD0Ev
libabsl_crc_internal.so.2301.0.0:_ZN4absl12lts_2023012512crc_internal3CRCD1Ev
libabsl_crc_internal.so.2301.0.0:_ZN4absl12lts_2023012512crc_internal3CRCD2Ev
libabsl_crc_internal.so.2301.0.0:_ZN4absl12lts_2023012512crc_internal5CRC3210InitTablesEv
libabsl_crc_internal.so.2301.0.0:_ZN4absl12lts_2023012512crc_internal7CRCImpl11NewInternalEv
libabsl_crc_internal.so.2301.0.0:_ZN4absl12lts_2023012512crc_internal7CRCImpl13FillWordTableEjjiPA256_j
libabsl_crc_internal.so.2301.0.0:_ZN4absl12lts_2023012512crc_internal7CRCImpl15FillZeroesTableEjPA256_j
libabsl_crc_internal.so.2301.0.0:_ZNK4absl12lts_2023012512crc_internal5CRC3210UnscrambleEPj
libabsl_crc_internal.so.2301.0.0:_ZNK4absl12lts_2023012512crc_internal5CRC3214ExtendByZeroesEPjm
libabsl_crc_internal.so.2301.0.0:_ZNK4absl12lts_2023012512crc_internal5CRC3216UnextendByZeroesEPjm
libabsl_crc_internal.so.2301.0.0:_ZNK4absl12lts_2023012512crc_internal5CRC3218ExtendByZeroesImplEPjmPKjS5_
libabsl_crc_internal.so.2301.0.0:_ZNK4absl12lts_2023012512crc_internal5CRC326ExtendEPjPKvm
libabsl_crc_internal.so.2301.0.0:_ZNK4absl12lts_2023012512crc_internal5CRC328ScrambleEPj
libabsl_crc_internal.so.2301.0.0:_ZNK4absl12lts_2023012512crc_internal7CRCImpl5EmptyEPj
libabsl_debugging_internal.so.2301.0.0:_ZN4absl12lts_2023012518debugging_internal11ElfMemImage14SymbolIterator6UpdateEi
libabsl_debugging_internal.so.2301.0.0:_ZN4absl12lts_2023012518debugging_internal11ElfMemImage14SymbolIteratorC1EPKvi
libabsl_debugging_internal.so.2301.0.0:_ZN4absl12lts_2023012518debugging_internal11ElfMemImage14SymbolIteratorC2EPKvi
libabsl_debugging_internal.so.2301.0.0:_ZN4absl12lts_2023012518debugging_internal11ElfMemImage14SymbolIteratorppEv
libabsl_debugging_internal.so.2301.0.0:_ZN4absl12lts_2023012518debugging_internal11ElfMemImage4InitEPKv
libabsl_debugging_internal.so.2301.0.0:_ZN4absl12lts_2023012518debugging_internal11ElfMemImageC1EPKv
libabsl_debugging_internal.so.2301.0.0:_ZN4absl12lts_2023012518debugging_internal11ElfMemImageC2EPKv
libabsl_debugging_internal.so.2301.0.0:_ZN4absl12lts_2023012518debugging_internal11VDSOSupport13InitAndGetCPUEPjPvS4_
libabsl_debugging_internal.so.2301.0.0:_ZN4absl12lts_2023012518debugging_internal11VDSOSupport16GetCPUViaSyscallEPjPvS4_
libabsl_debugging_internal.so.2301.0.0:_ZN4absl12lts_2023012518debugging_internal11VDSOSupport4InitEv
libabsl_debugging_internal.so.2301.0.0:_ZN4absl12lts_2023012518debugging_internal11VDSOSupport7SetBaseEPKv
libabsl_debugging_internal.so.2301.0.0:_ZN4absl12lts_2023012518debugging_internal11VDSOSupportC1Ev
libabsl_debugging_internal.so.2301.0.0:_ZN4absl12lts_2023012518debugging_internal11VDSOSupportC2Ev
libabsl_debugging_internal.so.2301.0.0:_ZN4absl12lts_2023012518debugging_internal17AddressIsReadableEPKv
libabsl_debugging_internal.so.2301.0.0:_ZN4absl12lts_2023012518debugging_internal6GetCPUEv
libabsl_debugging_internal.so.2301.0.0:_ZNK4absl12lts_2023012518debugging_internal11ElfMemImage10GetSymAddrEPK9Elf64_Sym
libabsl_debugging_internal.so.2301.0.0:_ZNK4absl12lts_2023012518debugging_internal11ElfMemImage12GetVerdefAuxEPK12Elf64_Verdef
libabsl_debugging_internal.so.2301.0.0:_ZNK4absl12lts_2023012518debugging_internal11ElfMemImage12LookupSymbolEPKcS4_iPNS2_10SymbolInfoE
libabsl_debugging_internal.so.2301.0.0:_ZNK4absl12lts_2023012518debugging_internal11ElfMemImage13GetNumSymbolsEv
libabsl_debugging_internal.so.2301.0.0:_ZNK4absl12lts_2023012518debugging_internal11ElfMemImage14SymbolIteratordeEv
libabsl_debugging_internal.so.2301.0.0:_ZNK4absl12lts_2023012518debugging_internal11ElfMemImage14SymbolIteratoreqERKS3_
libabsl_debugging_internal.so.2301.0.0:_ZNK4absl12lts_2023012518debugging_internal11ElfMemImage14SymbolIteratorneERKS3_
libabsl_debugging_internal.so.2301.0.0:_ZNK4absl12lts_2023012518debugging_internal11ElfMemImage14SymbolIteratorptEv
libabsl_debugging_internal.so.2301.0.0:_ZNK4absl12lts_2023012518debugging_internal11ElfMemImage21LookupSymbolByAddressEPKvPNS2_10SymbolInfoE
libabsl_debugging_internal.so.2301.0.0:_ZNK4absl12lts_2023012518debugging_internal11ElfMemImage3endEv
libabsl_debugging_internal.so.2301.0.0:_ZNK4absl12lts_2023012518debugging_internal11ElfMemImage5beginEv
libabsl_debugging_internal.so.2301.0.0:_ZNK4absl12lts_2023012518debugging_internal11ElfMemImage7GetPhdrEi
libabsl_debugging_internal.so.2301.0.0:_ZNK4absl12lts_2023012518debugging_internal11ElfMemImage9GetDynstrEj
libabsl_debugging_internal.so.2301.0.0:_ZNK4absl12lts_2023012518debugging_internal11ElfMemImage9GetDynsymEi
libabsl_debugging_internal.so.2301.0.0:_ZNK4absl12lts_2023012518debugging_internal11ElfMemImage9GetVerdefEi
libabsl_debugging_internal.so.2301.0.0:_ZNK4absl12lts_2023012518debugging_internal11ElfMemImage9GetVerstrEj
libabsl_debugging_internal.so.2301.0.0:_ZNK4absl12lts_2023012518debugging_internal11ElfMemImage9GetVersymEi
libabsl_debugging_internal.so.2301.0.0:_ZNK4absl12lts_2023012518debugging_internal11VDSOSupport12LookupSymbolEPKcS4_iPNS1_11ElfMemImage10SymbolInfoE
libabsl_debugging_internal.so.2301.0.0:_ZNK4absl12lts_2023012518debugging_internal11VDSOSupport21LookupSymbolByAddressEPKvPNS1_11ElfMemImage10SymbolInfoE
libabsl_demangle_internal.so.2301.0.0:_ZN4absl12lts_2023012518debugging_internal8DemangleEPKcPcm
libabsl_die_if_null.so.2301.0.0:_ZN4absl12lts_2023012512log_internal14DieBecauseNullEPKciS3_
libabsl_examine_stack.so.2301.0.0:_ZN4absl12lts_2023012518debugging_internal14DumpStackTraceEiibPFvPKcPvES4_
libabsl_examine_stack.so.2301.0.0:_ZN4absl12lts_2023012518debugging_internal17GetProgramCounterEPv
libabsl_examine_stack.so.2301.0.0:_ZN4absl12lts_2023012518debugging_internal22GetDebugStackTraceHookEv
libabsl_examine_stack.so.2301.0.0:_ZN4absl12lts_2023012518debugging_internal27RegisterDebugStackTraceHookEPFvPKPviPFvPKcS2_ES2_E
libabsl_examine_stack.so.2301.0.0:_ZN4absl12lts_2023012518debugging_internal32DumpPCAndFrameSizesAndStackTraceEPvPKS2_PiiibPFvPKcS2_ES2_
libabsl_exponential_biased.so.2301.0.0:_ZN4absl12lts_2023012518profiling_internal17ExponentialBiased10InitializeEv
libabsl_exponential_biased.so.2301.0.0:_ZN4absl12lts_2023012518profiling_internal17ExponentialBiased12GetSkipCountEl
libabsl_exponential_biased.so.2301.0.0:_ZN4absl12lts_2023012518profiling_internal17ExponentialBiased9GetStrideEl
libabsl_failure_signal_handler.so.2301.0.0:_ZN4absl12lts_2023012518debugging_internal21FailureSignalToStringEi
libabsl_failure_signal_handler.so.2301.0.0:_ZN4absl12lts_2023012527InstallFailureSignalHandlerERKNS0_27FailureSignalHandlerOptionsE
libabsl_flags_commandlineflag.so.2301.0.0:_ZN4absl12lts_2023012515CommandLineFlag9ParseFromESt17basic_string_viewIcSt11char_traitsIcEEPNSt7__cxx1112basic_stringIcS4_SaIcEEE
libabsl_flags_commandlineflag.so.2301.0.0:_ZNK4absl12lts_2023012515CommandLineFlag9IsRetiredEv
libabsl_flags_commandlineflag_internal.so.2301.0.0:_ZN4absl12lts_2023012514flags_internal18FlagStateInterfaceD0Ev
libabsl_flags_commandlineflag_internal.so.2301.0.0:_ZN4absl12lts_2023012514flags_internal18FlagStateInterfaceD1Ev
libabsl_flags_commandlineflag_internal.so.2301.0.0:_ZN4absl12lts_2023012514flags_internal18FlagStateInterfaceD2Ev
libabsl_flags_config.so.2301.0.0:AbslInternalReportFatalUsageError_lts_20230125
libabsl_flags_config.so.2301.0.0:_ZN4absl12lts_2023012514flags_internal14GetUsageConfigEv
libabsl_flags_config.so.2301.0.0:_ZN4absl12lts_2023012514flags_internal16ReportUsageErrorESt17basic_string_viewIcSt11char_traitsIcEEb
libabsl_flags_config.so.2301.0.0:_ZN4absl12lts_2023012519SetFlagsUsageConfigENS0_16FlagsUsageConfigE
libabsl_flags_config.so.2301.0.0:_ZNSt17_Function_handlerIFNSt7__cxx1112basic_stringIcSt11char_traitsIcESaIcEEESt17basic_string_viewIcS3_EEPS8_E10_M_managerERSt9_Any_dataRKSB_St18_Manager_operation
libabsl_flags_config.so.2301.0.0:_ZNSt17_Function_handlerIFNSt7__cxx1112basic_stringIcSt11char_traitsIcESaIcEEESt17basic_string_viewIcS3_EEPS8_E9_M_invokeERKSt9_Any_dataOS7_
libabsl_flags_config.so.2301.0.0:_ZNSt17_Function_handlerIFNSt7__cxx1112basic_stringIcSt11char_traitsIcESaIcEEEvEPS6_E10_M_managerERSt9_Any_dataRKS9_St18_Manager_operation
libabsl_flags_config.so.2301.0.0:_ZNSt17_Function_handlerIFNSt7__cxx1112basic_stringIcSt11char_traitsIcESaIcEEEvEPS6_E9_M_invokeERKSt9_Any_data
libabsl_flags_config.so.2301.0.0:_ZNSt17_Function_handlerIFbSt17basic_string_viewIcSt11char_traitsIcEEEPS4_E10_M_managerERSt9_Any_dataRKS7_St18_Manager_operation
libabsl_flags_config.so.2301.0.0:_ZNSt17_Function_handlerIFbSt17basic_string_viewIcSt11char_traitsIcEEEPS4_E9_M_invokeERKSt9_Any_dataOS3_
libabsl_flags_internal.so.2301.0.0:_ZN4absl12lts_2023012514flags_internal15DynValueDeleterC1EPFPvNS1_6FlagOpEPKvS3_S3_E
libabsl_flags_internal.so.2301.0.0:_ZN4absl12lts_2023012514flags_internal15DynValueDeleterC2EPFPvNS1_6FlagOpEPKvS3_S3_E
libabsl_flags_internal.so.2301.0.0:_ZN4absl12lts_2023012514flags_internal8FlagImpl10StoreValueEPKv
libabsl_flags_internal.so.2301.0.0:_ZN4absl12lts_2023012514flags_internal8FlagImpl11SetCallbackEPFvvE
libabsl_flags_internal.so.2301.0.0:_ZN4absl12lts_2023012514flags_internal8FlagImpl12RestoreStateERKNS1_9FlagStateE
libabsl_flags_internal.so.2301.0.0:_ZN4absl12lts_2023012514flags_internal8FlagImpl4InitEv
libabsl_flags_internal.so.2301.0.0:_ZN4absl12lts_2023012514flags_internal8FlagImpl5WriteEPKv
libabsl_flags_internal.so.2301.0.0:_ZN4absl12lts_2023012514flags_internal8FlagImpl9ParseFromESt17basic_string_viewIcSt11char_traitsIcEENS1_15FlagSettingModeENS1_11ValueSourceERNSt7__cxx1112basic_stringIcS5_SaIcEEE
libabsl_flags_internal.so.2301.0.0:_ZN4absl12lts_2023012514flags_internal8FlagImpl9SaveStateEv
libabsl_flags_internal.so.2301.0.0:_ZNK4absl12lts_2023012514flags_internal15DynValueDeleterclEPv
libabsl_flags_internal.so.2301.0.0:_ZNK4absl12lts_2023012514flags_internal8FlagImpl11ReadOneBoolEv
libabsl_flags_internal.so.2301.0.0:_ZNK4absl12lts_2023012514flags_internal8FlagImpl11ReadOneWordEv
libabsl_flags_internal.so.2301.0.0:_ZNK4absl12lts_2023012514flags_internal8FlagImpl12CurrentValueB5cxx11Ev
libabsl_flags_internal.so.2301.0.0:_ZNK4absl12lts_2023012514flags_internal8FlagImpl12DefaultValueB5cxx11Ev
libabsl_flags_internal.so.2301.0.0:_ZNK4absl12lts_2023012514flags_internal8FlagImpl12OneWordValueEv
libabsl_flags_internal.so.2301.0.0:_ZNK4absl12lts_2023012514flags_internal8FlagImpl13MakeInitValueEv
libabsl_flags_internal.so.2301.0.0:_ZNK4absl12lts_2023012514flags_internal8FlagImpl14InvokeCallbackEv
libabsl_flags_internal.so.2301.0.0:_ZNK4absl12lts_2023012514flags_internal8FlagImpl15AssertValidTypeEPKvPFPKSt9type_infovE
libabsl_flags_internal.so.2301.0.0:_ZNK4absl12lts_2023012514flags_internal8FlagImpl17AtomicBufferValueEv
libabsl_flags_internal.so.2301.0.0:_ZNK4absl12lts_2023012514flags_internal8FlagImpl17ModificationCountEv
libabsl_flags_internal.so.2301.0.0:_ZNK4absl12lts_2023012514flags_internal8FlagImpl18AlignedBufferValueEv
libabsl_flags_internal.so.2301.0.0:_ZNK4absl12lts_2023012514flags_internal8FlagImpl18ValidateInputValueESt17basic_string_viewIcSt11char_traitsIcEE
libabsl_flags_internal.so.2301.0.0:_ZNK4absl12lts_2023012514flags_internal8FlagImpl22ReadSequenceLockedDataEPv
libabsl_flags_internal.so.2301.0.0:_ZNK4absl12lts_2023012514flags_internal8FlagImpl24IsSpecifiedOnCommandLineEv
libabsl_flags_internal.so.2301.0.0:_ZNK4absl12lts_2023012514flags_internal8FlagImpl33CheckDefaultValueParsingRoundtripEv
libabsl_flags_internal.so.2301.0.0:_ZNK4absl12lts_2023012514flags_internal8FlagImpl4HelpB5cxx11Ev
libabsl_flags_internal.so.2301.0.0:_ZNK4absl12lts_2023012514flags_internal8FlagImpl4NameEv
libabsl_flags_internal.so.2301.0.0:_ZNK4absl12lts_2023012514flags_internal8FlagImpl4ReadEPv
libabsl_flags_internal.so.2301.0.0:_ZNK4absl12lts_2023012514flags_internal8FlagImpl6TypeIdEv
libabsl_flags_internal.so.2301.0.0:_ZNK4absl12lts_2023012514flags_internal8FlagImpl8FilenameB5cxx11Ev
libabsl_flags_internal.so.2301.0.0:_ZNK4absl12lts_2023012514flags_internal8FlagImpl8TryParseESt17basic_string_viewIcSt11char_traitsIcEERNSt7__cxx1112basic_stringIcS5_SaIcEEE
libabsl_flags_internal.so.2301.0.0:_ZNK4absl12lts_2023012514flags_internal8FlagImpl9DataGuardEv
libabsl_flags_marshalling.so.2301.0.0:_ZN4absl12lts_2023012513AbslParseFlagESt17basic_string_viewIcSt11char_traitsIcEEPNS0_11LogSeverityEPNSt7__cxx1112basic_stringIcS3_SaIcEEE
libabsl_flags_marshalling.so.2301.0.0:_ZN4absl12lts_2023012513ascii_isspaceEh
libabsl_flags_marshalling.so.2301.0.0:_ZN4absl12lts_2023012514flags_internal13AbslParseFlagESt17basic_string_viewIcSt11char_traitsIcEEPNSt7__cxx1112basic_stringIcS4_SaIcEEESA_
libabsl_flags_marshalling.so.2301.0.0:_ZN4absl12lts_2023012514flags_internal13AbslParseFlagESt17basic_string_viewIcSt11char_traitsIcEEPSt6vectorINSt7__cxx1112basic_stringIcS4_SaIcEEESaISA_EEPSA_
libabsl_flags_marshalling.so.2301.0.0:_ZN4absl12lts_2023012514flags_internal13AbslParseFlagESt17basic_string_viewIcSt11char_traitsIcEEPbPNSt7__cxx1112basic_stringIcS4_SaIcEEE
libabsl_flags_marshalling.so.2301.0.0:_ZN4absl12lts_2023012514flags_internal13AbslParseFlagESt17basic_string_viewIcSt11char_traitsIcEEPdPNSt7__cxx1112basic_stringIcS4_SaIcEEE
libabsl_flags_marshalling.so.2301.0.0:_ZN4absl12lts_2023012514flags_internal13AbslParseFlagESt17basic_string_viewIcSt11char_traitsIcEEPfPNSt7__cxx1112basic_stringIcS4_SaIcEEE
libabsl_flags_marshalling.so.2301.0.0:_ZN4absl12lts_2023012514flags_internal13AbslParseFlagESt17basic_string_viewIcSt11char_traitsIcEEPiPNSt7__cxx1112basic_stringIcS4_SaIcEEE
libabsl_flags_marshalling.so.2301.0.0:_ZN4absl12lts_2023012514flags_internal13AbslParseFlagESt17basic_string_viewIcSt11char_traitsIcEEPjPNSt7__cxx1112basic_stringIcS4_SaIcEEE
libabsl_flags_marshalling.so.2301.0.0:_ZN4absl12lts_2023012514flags_internal13AbslParseFlagESt17basic_string_viewIcSt11char_traitsIcEEPlPNSt7__cxx1112basic_stringIcS4_SaIcEEE
libabsl_flags_marshalling.so.2301.0.0:_ZN4absl12lts_2023012514flags_internal13AbslParseFlagESt17basic_string_viewIcSt11char_traitsIcEEPmPNSt7__cxx1112basic_stringIcS4_SaIcEEE
libabsl_flags_marshalling.so.2301.0.0:_ZN4absl12lts_2023012514flags_internal13AbslParseFlagESt17basic_string_viewIcSt11char_traitsIcEEPsPNSt7__cxx1112basic_stringIcS4_SaIcEEE
libabsl_flags_marshalling.so.2301.0.0:_ZN4absl12lts_2023012514flags_internal13AbslParseFlagESt17basic_string_viewIcSt11char_traitsIcEEPtPNSt7__cxx1112basic_stringIcS4_SaIcEEE
libabsl_flags_marshalling.so.2301.0.0:_ZN4absl12lts_2023012514flags_internal13AbslParseFlagESt17basic_string_viewIcSt11char_traitsIcEEPxPNSt7__cxx1112basic_stringIcS4_SaIcEEE
libabsl_flags_marshalling.so.2301.0.0:_ZN4absl12lts_2023012514flags_internal13AbslParseFlagESt17basic_string_viewIcSt11char_traitsIcEEPyPNSt7__cxx1112basic_stringIcS4_SaIcEEE
libabsl_flags_marshalling.so.2301.0.0:_ZN4absl12lts_2023012514flags_internal15AbslUnparseFlagB5cxx11ESt17basic_string_viewIcSt11char_traitsIcEE
libabsl_flags_marshalling.so.2301.0.0:_ZN4absl12lts_2023012514flags_internal15AbslUnparseFlagERKSt6vectorINSt7__cxx1112basic_stringIcSt11char_traitsIcESaIcEEESaIS8_EE
libabsl_flags_marshalling.so.2301.0.0:_ZN4absl12lts_2023012514flags_internal7UnparseB5cxx11Eb
libabsl_flags_marshalling.so.2301.0.0:_ZN4absl12lts_2023012514flags_internal7UnparseB5cxx11Ed
libabsl_flags_marshalling.so.2301.0.0:_ZN4absl12lts_2023012514flags_internal7UnparseB5cxx11Ef
libabsl_flags_marshalling.so.2301.0.0:_ZN4absl12lts_2023012514flags_internal7UnparseB5cxx11Ei
libabsl_flags_marshalling.so.2301.0.0:_ZN4absl12lts_2023012514flags_internal7UnparseB5cxx11Ej
libabsl_flags_marshalling.so.2301.0.0:_ZN4absl12lts_2023012514flags_internal7UnparseB5cxx11El
libabsl_flags_marshalling.so.2301.0.0:_ZN4absl12lts_2023012514flags_internal7UnparseB5cxx11Em
libabsl_flags_marshalling.so.2301.0.0:_ZN4absl12lts_2023012514flags_internal7UnparseB5cxx11Es
libabsl_flags_marshalling.so.2301.0.0:_ZN4absl12lts_2023012514flags_internal7UnparseB5cxx11Et
libabsl_flags_marshalling.so.2301.0.0:_ZN4absl12lts_2023012514flags_internal7UnparseB5cxx11Ex
libabsl_flags_marshalling.so.2301.0.0:_ZN4absl12lts_2023012514flags_internal7UnparseB5cxx11Ey
libabsl_flags_marshalling.so.2301.0.0:_ZN4absl12lts_2023012515AbslUnparseFlagB5cxx11ENS0_11LogSeverityE
libabsl_flags_parse.so.2301.0.0:_ZN15FLAGS_nofromenvMUlvE_4_FUNEv
libabsl_flags_parse.so.2301.0.0:_ZN16FLAGS_noflagfileMUlvE_4_FUNEv
libabsl_flags_parse.so.2301.0.0:_ZN18FLAGS_notryfromenvMUlvE_4_FUNEv
libabsl_flags_parse.so.2301.0.0:_ZN28AbslFlagDefaultGenForfromenv3GenEPv
libabsl_flags_parse.so.2301.0.0:_ZN28AbslFlagDefaultGenForundefok3GenEPv
libabsl_flags_parse.so.2301.0.0:_ZN29AbslFlagDefaultGenForflagfile3GenEPv
libabsl_flags_parse.so.2301.0.0:_ZN31AbslFlagDefaultGenFortryfromenv3GenEPv
libabsl_flags_parse.so.2301.0.0:_ZN4absl12lts_2023012513ascii_isspaceEh
libabsl_flags_parse.so.2301.0.0:_ZN4absl12lts_2023012514flags_internal16GenRuntimeTypeIdISt6vectorINSt7__cxx1112basic_stringIcSt11char_traitsIcESaIcEEESaIS9_EEEEPKSt9type_infov
libabsl_flags_parse.so.2301.0.0:_ZN4absl12lts_2023012514flags_internal19GetMisspellingHintsB5cxx11ESt17basic_string_viewIcSt11char_traitsIcEE
libabsl_flags_parse.so.2301.0.0:_ZN4absl12lts_2023012514flags_internal20ParseCommandLineImplEiPPcNS1_14ArgvListActionENS1_16UsageFlagsActionENS1_15OnUndefinedFlagE
libabsl_flags_parse.so.2301.0.0:_ZN4absl12lts_2023012514flags_internal23WasPresentOnCommandLineESt17basic_string_viewIcSt11char_traitsIcEE
libabsl_flags_parse.so.2301.0.0:_ZN4absl12lts_2023012514flags_internal7FlagOpsISt6vectorINSt7__cxx1112basic_stringIcSt11char_traitsIcESaIcEEESaIS9_EEEEPvNS1_6FlagOpEPKvSC_SC_
libabsl_flags_parse.so.2301.0.0:_ZN4absl12lts_2023012516ParseCommandLineEiPPc
libabsl_flags_private_handle_accessor.so.2301.0.0:_ZN4absl12lts_2023012514flags_internal21PrivateHandleAccessor18ValidateInputValueERKNS0_15CommandLineFlagESt17basic_string_viewIcSt11char_traitsIcEE
libabsl_flags_private_handle_accessor.so.2301.0.0:_ZN4absl12lts_2023012514flags_internal21PrivateHandleAccessor24IsSpecifiedOnCommandLineERKNS0_15CommandLineFlagE
libabsl_flags_private_handle_accessor.so.2301.0.0:_ZN4absl12lts_2023012514flags_internal21PrivateHandleAccessor33CheckDefaultValueParsingRoundtripERKNS0_15CommandLineFlagE
libabsl_flags_private_handle_accessor.so.2301.0.0:_ZN4absl12lts_2023012514flags_internal21PrivateHandleAccessor6TypeIdERKNS0_15CommandLineFlagE
libabsl_flags_private_handle_accessor.so.2301.0.0:_ZN4absl12lts_2023012514flags_internal21PrivateHandleAccessor9ParseFromERNS0_15CommandLineFlagESt17basic_string_viewIcSt11char_traitsIcEENS1_15FlagSettingModeENS1_11ValueSourceERNSt7__cxx1112basic_stringIcS7_SaIcEEE
libabsl_flags_private_handle_accessor.so.2301.0.0:_ZN4absl12lts_2023012514flags_internal21PrivateHandleAccessor9SaveStateERNS0_15CommandLineFlagE
libabsl_flags_program_name.so.2301.0.0:_ZN4absl12lts_2023012514flags_internal21ProgramInvocationNameB5cxx11Ev
libabsl_flags_program_name.so.2301.0.0:_ZN4absl12lts_2023012514flags_internal24SetProgramInvocationNameESt17basic_string_viewIcSt11char_traitsIcEE
libabsl_flags_program_name.so.2301.0.0:_ZN4absl12lts_2023012514flags_internal26ShortProgramInvocationNameB5cxx11Ev
libabsl_flags_reflection.so.2301.0.0:_ZN4absl12lts_2023012511GetAllFlagsEv
libabsl_flags_reflection.so.2301.0.0:_ZN4absl12lts_2023012514flags_internal11ForEachFlagESt8functionIFvRNS0_15CommandLineFlagEEE
libabsl_flags_reflection.so.2301.0.0:_ZN4absl12lts_2023012514flags_internal12FlagRegistry12RegisterFlagERNS0_15CommandLineFlagEPKc
libabsl_flags_reflection.so.2301.0.0:_ZN4absl12lts_2023012514flags_internal12FlagRegistry14GlobalRegistryEv
libabsl_flags_reflection.so.2301.0.0:_ZN4absl12lts_2023012514flags_internal12FlagRegistry8FindFlagESt17basic_string_viewIcSt11char_traitsIcEE
libabsl_flags_reflection.so.2301.0.0:_ZN4absl12lts_2023012514flags_internal16FinalizeRegistryEv
libabsl_flags_reflection.so.2301.0.0:_ZN4absl12lts_2023012514flags_internal23RegisterCommandLineFlagERNS0_15CommandLineFlagEPKc
libabsl_flags_reflection.so.2301.0.0:_ZN4absl12lts_2023012514flags_internal6RetireEPKcPKvPc
libabsl_flags_reflection.so.2301.0.0:_ZN4absl12lts_2023012518container_internal12raw_hash_setINS1_17FlatHashMapPolicyISt17basic_string_viewIcSt11char_traitsIcEEPNS0_15CommandLineFlagEEENS1_10StringHashENS1_8StringEqESaISt4pairIKS7_S9_EEE12hash_slot_fnEPvSI_
libabsl_flags_reflection.so.2301.0.0:_ZN4absl12lts_2023012518container_internal12raw_hash_setINS1_17FlatHashMapPolicyISt17basic_string_viewIcSt11char_traitsIcEEPNS0_15CommandLineFlagEEENS1_10StringHashENS1_8StringEqESaISt4pairIKS7_S9_EEE16transfer_slot_fnEPvSI_SI_
libabsl_flags_reflection.so.2301.0.0:_ZN4absl12lts_2023012518container_internal18DeallocateStandardILm8EEEvPvRKNS1_15PolicyFunctionsEPNS1_6ctrl_tES3_m
libabsl_flags_reflection.so.2301.0.0:_ZN4absl12lts_2023012519FindCommandLineFlagESt17basic_string_viewIcSt11char_traitsIcEE
libabsl_flags_reflection.so.2301.0.0:_ZN4absl12lts_202301259FlagSaverC1Ev
libabsl_flags_reflection.so.2301.0.0:_ZN4absl12lts_202301259FlagSaverC2Ev
libabsl_flags_reflection.so.2301.0.0:_ZN4absl12lts_202301259FlagSaverD1Ev
libabsl_flags_reflection.so.2301.0.0:_ZN4absl12lts_202301259FlagSaverD2Ev
libabsl_flags_reflection.so.2301.0.0:_ZNSt17_Function_handlerIFvRN4absl12lts_2023012515CommandLineFlagEEZNS1_14flags_internal13FlagSaverImpl16SaveFromRegistryEvEUlS3_E_E10_M_managerERSt9_Any_dataRKS9_St18_Manager_operation
libabsl_flags_reflection.so.2301.0.0:_ZNSt17_Function_handlerIFvRN4absl12lts_2023012515CommandLineFlagEEZNS1_14flags_internal13FlagSaverImpl16SaveFromRegistryEvEUlS3_E_E9_M_invokeERKSt9_Any_dataS3_
libabsl_flags_usage.so.2301.0.0:_ZN4absl12lts_2023012519ProgramUsageMessageEv
libabsl_flags_usage.so.2301.0.0:_ZN4absl12lts_2023012522SetProgramUsageMessageESt17basic_string_viewIcSt11char_traitsIcEE
libabsl_flags_usage_internal.so.2301.0.0:_ZN4absl12lts_2023012514flags_internal16DeduceUsageFlagsESt17basic_string_viewIcSt11char_traitsIcEES5_
libabsl_flags_usage_internal.so.2301.0.0:_ZN4absl12lts_2023012514flags_internal16GetFlagsHelpModeEv
libabsl_flags_usage_internal.so.2301.0.0:_ZN4absl12lts_2023012514flags_internal16HandleUsageFlagsERSoSt17basic_string_viewIcSt11char_traitsIcEE
libabsl_flags_usage_internal.so.2301.0.0:_ZN4absl12lts_2023012514flags_internal16SetFlagsHelpModeENS1_8HelpModeE
libabsl_flags_usage_internal.so.2301.0.0:_ZN4absl12lts_2023012514flags_internal18GetFlagsHelpFormatEv
libabsl_flags_usage_internal.so.2301.0.0:_ZN4absl12lts_2023012514flags_internal18SetFlagsHelpFormatENS1_10HelpFormatE
libabsl_flags_usage_internal.so.2301.0.0:_ZN4absl12lts_2023012514flags_internal23GetFlagsHelpMatchSubstrB5cxx11Ev
libabsl_flags_usage_internal.so.2301.0.0:_ZN4absl12lts_2023012514flags_internal23SetFlagsHelpMatchSubstrESt17basic_string_viewIcSt11char_traitsIcEE
libabsl_flags_usage_internal.so.2301.0.0:_ZN4absl12lts_2023012514flags_internal8FlagHelpERSoRKNS0_15CommandLineFlagENS1_10HelpFormatE
libabsl_flags_usage_internal.so.2301.0.0:_ZN4absl12lts_2023012514flags_internal9FlagsHelpERSoSt17basic_string_viewIcSt11char_traitsIcEENS1_10HelpFormatES6_
libabsl_graphcycles_internal.so.2301.0.0:_ZN4absl12lts_2023012524synchronization_internal11GraphCycles10InsertEdgeENS1_7GraphIdES3_
libabsl_graphcycles_internal.so.2301.0.0:_ZN4absl12lts_2023012524synchronization_internal11GraphCycles10RemoveEdgeENS1_7GraphIdES3_
libabsl_graphcycles_internal.so.2301.0.0:_ZN4absl12lts_2023012524synchronization_internal11GraphCycles10RemoveNodeEPv
libabsl_graphcycles_internal.so.2301.0.0:_ZN4absl12lts_2023012524synchronization_internal11GraphCycles13GetStackTraceENS1_7GraphIdEPPPv
libabsl_graphcycles_internal.so.2301.0.0:_ZN4absl12lts_2023012524synchronization_internal11GraphCycles16UpdateStackTraceENS1_7GraphIdEiPFiPPviE
libabsl_graphcycles_internal.so.2301.0.0:_ZN4absl12lts_2023012524synchronization_internal11GraphCycles3PtrENS1_7GraphIdE
libabsl_graphcycles_internal.so.2301.0.0:_ZN4absl12lts_2023012524synchronization_internal11GraphCycles5GetIdEPv
libabsl_graphcycles_internal.so.2301.0.0:_ZN4absl12lts_2023012524synchronization_internal11GraphCycles7HasNodeENS1_7GraphIdE
libabsl_graphcycles_internal.so.2301.0.0:_ZN4absl12lts_2023012524synchronization_internal11GraphCyclesC1Ev
libabsl_graphcycles_internal.so.2301.0.0:_ZN4absl12lts_2023012524synchronization_internal11GraphCyclesC2Ev
libabsl_graphcycles_internal.so.2301.0.0:_ZN4absl12lts_2023012524synchronization_internal11GraphCyclesD1Ev
libabsl_graphcycles_internal.so.2301.0.0:_ZN4absl12lts_2023012524synchronization_internal11GraphCyclesD2Ev
libabsl_graphcycles_internal.so.2301.0.0:_ZNK4absl12lts_2023012524synchronization_internal11GraphCycles11IsReachableENS1_7GraphIdES3_
libabsl_graphcycles_internal.so.2301.0.0:_ZNK4absl12lts_2023012524synchronization_internal11GraphCycles15CheckInvariantsEv
libabsl_graphcycles_internal.so.2301.0.0:_ZNK4absl12lts_2023012524synchronization_internal11GraphCycles7HasEdgeENS1_7GraphIdES3_
libabsl_graphcycles_internal.so.2301.0.0:_ZNK4absl12lts_2023012524synchronization_internal11GraphCycles8FindPathENS1_7GraphIdES3_iPS3_
libabsl_hash.so.2301.0.0:_ZN4absl12lts_2023012513hash_internal15MixingHashState16LowLevelHashImplEPKhm
libabsl_hash.so.2301.0.0:_ZN4absl12lts_2023012513hash_internal15MixingHashState28CombineLargeContiguousImpl32EmPKhm
libabsl_hash.so.2301.0.0:_ZN4absl12lts_2023012513hash_internal15MixingHashState28CombineLargeContiguousImpl64EmPKhm
libabsl_hashtablez_sampler.so.2301.0.0:AbslContainerInternalSampleEverything_lts_20230125
libabsl_hashtablez_sampler.so.2301.0.0:_ZN4absl12lts_2023012518container_internal10SampleSlowERNS1_13SamplingStateEm
libabsl_hashtablez_sampler.so.2301.0.0:_ZN4absl12lts_2023012518container_internal12UnsampleSlowEPNS1_14HashtablezInfoE
libabsl_hashtablez_sampler.so.2301.0.0:_ZN4absl12lts_2023012518container_internal14HashtablezInfo18PrepareForSamplingElm
libabsl_hashtablez_sampler.so.2301.0.0:_ZN4absl12lts_2023012518container_internal14HashtablezInfoC1Ev
libabsl_hashtablez_sampler.so.2301.0.0:_ZN4absl12lts_2023012518container_internal14HashtablezInfoC2Ev
libabsl_hashtablez_sampler.so.2301.0.0:_ZN4absl12lts_2023012518container_internal14HashtablezInfoD1Ev
libabsl_hashtablez_sampler.so.2301.0.0:_ZN4absl12lts_2023012518container_internal14HashtablezInfoD2Ev
libabsl_hashtablez_sampler.so.2301.0.0:_ZN4absl12lts_2023012518container_internal15RecordEraseSlowEPNS1_14HashtablezInfoE
libabsl_hashtablez_sampler.so.2301.0.0:_ZN4absl12lts_2023012518container_internal16RecordInsertSlowEPNS1_14HashtablezInfoEmm
libabsl_hashtablez_sampler.so.2301.0.0:_ZN4absl12lts_2023012518container_internal16RecordRehashSlowEPNS1_14HashtablezInfoEm
libabsl_hashtablez_sampler.so.2301.0.0:_ZN4absl12lts_2023012518container_internal19IsHashtablezEnabledEv
libabsl_hashtablez_sampler.so.2301.0.0:_ZN4absl12lts_2023012518container_internal20SetHashtablezEnabledEb
libabsl_hashtablez_sampler.so.2301.0.0:_ZN4absl12lts_2023012518container_internal21RecordReservationSlowEPNS1_14HashtablezInfoEm
libabsl_hashtablez_sampler.so.2301.0.0:_ZN4absl12lts_2023012518container_internal23GetHashtablezMaxSamplesEv
libabsl_hashtablez_sampler.so.2301.0.0:_ZN4absl12lts_2023012518container_internal23GlobalHashtablezSamplerEv
libabsl_hashtablez_sampler.so.2301.0.0:_ZN4absl12lts_2023012518container_internal23SetHashtablezMaxSamplesEm
libabsl_hashtablez_sampler.so.2301.0.0:_ZN4absl12lts_2023012518container_internal24RecordStorageChangedSlowEPNS1_14HashtablezInfoEmm
libabsl_hashtablez_sampler.so.2301.0.0:_ZN4absl12lts_2023012518container_internal27SetHashtablezConfigListenerEPFvvE
libabsl_hashtablez_sampler.so.2301.0.0:_ZN4absl12lts_2023012518container_internal28GetHashtablezSampleParameterEv
libabsl_hashtablez_sampler.so.2301.0.0:_ZN4absl12lts_2023012518container_internal28RecordClearedReservationSlowEPNS1_14HashtablezInfoE
libabsl_hashtablez_sampler.so.2301.0.0:_ZN4absl12lts_2023012518container_internal28SetHashtablezEnabledInternalEb
libabsl_hashtablez_sampler.so.2301.0.0:_ZN4absl12lts_2023012518container_internal28SetHashtablezSampleParameterEi
libabsl_hashtablez_sampler.so.2301.0.0:_ZN4absl12lts_2023012518container_internal31SetHashtablezMaxSamplesInternalEm
libabsl_hashtablez_sampler.so.2301.0.0:_ZN4absl12lts_2023012518container_internal36SetHashtablezSampleParameterInternalEi
libabsl_int128.so.2301.0.0:_ZN4absl12lts_202301257uint128C1Ed
libabsl_int128.so.2301.0.0:_ZN4absl12lts_202301257uint128C1Ee
libabsl_int128.so.2301.0.0:_ZN4absl12lts_202301257uint128C1Ef
libabsl_int128.so.2301.0.0:_ZN4absl12lts_202301257uint128C2Ed
libabsl_int128.so.2301.0.0:_ZN4absl12lts_202301257uint128C2Ee
libabsl_int128.so.2301.0.0:_ZN4absl12lts_202301257uint128C2Ef
libabsl_int128.so.2301.0.0:_ZN4absl12lts_20230125lsERSoNS0_6int128E
libabsl_int128.so.2301.0.0:_ZN4absl12lts_20230125lsERSoNS0_7uint128E
libabsl_leak_check.so.2301.0.0:_ZN4absl12lts_2023012512DoIgnoreLeakEPKv
libabsl_leak_check.so.2301.0.0:_ZN4absl12lts_2023012517HaveLeakSanitizerEv
libabsl_leak_check.so.2301.0.0:_ZN4absl12lts_2023012517LeakCheckDisablerC1Ev
libabsl_leak_check.so.2301.0.0:_ZN4absl12lts_2023012517LeakCheckDisablerC2Ev
libabsl_leak_check.so.2301.0.0:_ZN4absl12lts_2023012517LeakCheckDisablerD1Ev
libabsl_leak_check.so.2301.0.0:_ZN4absl12lts_2023012517LeakCheckDisablerD2Ev
libabsl_leak_check.so.2301.0.0:_ZN4absl12lts_2023012519LeakCheckerIsActiveEv
libabsl_leak_check.so.2301.0.0:_ZN4absl12lts_2023012520RegisterLivePointersEPKvm
libabsl_leak_check.so.2301.0.0:_ZN4absl12lts_2023012522UnRegisterLivePointersEPKvm
libabsl_log_flags.so.2301.0.0:_ZN18FLAGS_nolog_prefixMUlvE_4_FUNEv
libabsl_log_flags.so.2301.0.0:_ZN19FLAGS_nominloglevelMUlvE_4_FUNEv
libabsl_log_flags.so.2301.0.0:_ZN23FLAGS_nostderrthresholdMUlvE_4_FUNEv
libabsl_log_flags.so.2301.0.0:_ZN24FLAGS_nolog_backtrace_atMUlvE_4_FUNEv
libabsl_log_flags.so.2301.0.0:_ZN37AbslFlagDefaultGenForlog_backtrace_at3GenEPv
libabsl_log_flags.so.2301.0.0:_ZN4absl12lts_2023012514flags_internal16GenRuntimeTypeIdIbEEPKSt9type_infov
libabsl_log_flags.so.2301.0.0:_ZN4absl12lts_2023012514flags_internal16GenRuntimeTypeIdIiEEPKSt9type_infov
libabsl_log_flags.so.2301.0.0:_ZN4absl12lts_2023012514flags_internal7FlagOpsINSt7__cxx1112basic_stringIcSt11char_traitsIcESaIcEEEEEPvNS1_6FlagOpEPKvS9_S9_
libabsl_log_flags.so.2301.0.0:_ZN4absl12lts_2023012514flags_internal7FlagOpsIbEEPvNS1_6FlagOpEPKvS3_S3_
libabsl_log_flags.so.2301.0.0:_ZN4absl12lts_2023012514flags_internal7FlagOpsIiEEPvNS1_6FlagOpEPKvS3_S3_
libabsl_log_globals.so.2301.0.0:_ZN4absl12lts_2023012511MinLogLevelEv
libabsl_log_globals.so.2301.0.0:_ZN4absl12lts_2023012512log_internal17RawSetMinLogLevelENS0_18LogSeverityAtLeastE
libabsl_log_globals.so.2301.0.0:_ZN4absl12lts_2023012512log_internal17ScopedMinLogLevelC1ENS0_18LogSeverityAtLeastE
libabsl_log_globals.so.2301.0.0:_ZN4absl12lts_2023012512log_internal17ScopedMinLogLevelC2ENS0_18LogSeverityAtLeastE
libabsl_log_globals.so.2301.0.0:_ZN4absl12lts_2023012512log_internal17ScopedMinLogLevelD1Ev
libabsl_log_globals.so.2301.0.0:_ZN4absl12lts_2023012512log_internal17ScopedMinLogLevelD2Ev
libabsl_log_globals.so.2301.0.0:_ZN4absl12lts_2023012512log_internal18RawEnableLogPrefixEb
libabsl_log_globals.so.2301.0.0:_ZN4absl12lts_2023012512log_internal20ShouldLogBacktraceAtESt17basic_string_viewIcSt11char_traitsIcEEi
libabsl_log_globals.so.2301.0.0:_ZN4absl12lts_2023012512log_internal21RawSetStderrThresholdENS0_18LogSeverityAtLeastE
libabsl_log_globals.so.2301.0.0:_ZN4absl12lts_2023012512log_internal25SetLoggingGlobalsListenerEPFvvE
libabsl_log_globals.so.2301.0.0:_ZN4absl12lts_2023012513base_internal10AtomicHookIPFvvEE13DummyFunctionEv
libabsl_log_globals.so.2301.0.0:_ZN4absl12lts_2023012514SetMinLogLevelENS0_18LogSeverityAtLeastE
libabsl_log_globals.so.2301.0.0:_ZN4absl12lts_2023012515EnableLogPrefixEb
libabsl_log_globals.so.2301.0.0:_ZN4absl12lts_2023012515StderrThresholdEv
libabsl_log_globals.so.2301.0.0:_ZN4absl12lts_2023012518SetStderrThresholdENS0_18LogSeverityAtLeastE
libabsl_log_globals.so.2301.0.0:_ZN4absl12lts_2023012521ScopedStderrThresholdC1ENS0_18LogSeverityAtLeastE
libabsl_log_globals.so.2301.0.0:_ZN4absl12lts_2023012521ScopedStderrThresholdC2ENS0_18LogSeverityAtLeastE
libabsl_log_globals.so.2301.0.0:_ZN4absl12lts_2023012521ScopedStderrThresholdD1Ev
libabsl_log_globals.so.2301.0.0:_ZN4absl12lts_2023012521ScopedStderrThresholdD2Ev
libabsl_log_globals.so.2301.0.0:_ZN4absl12lts_2023012522ShouldPrependLogPrefixEv
libabsl_log_globals.so.2301.0.0:_ZN4absl12lts_2023012523SetLogBacktraceLocationESt17basic_string_viewIcSt11char_traitsIcEEi
libabsl_log_initialize.so.2301.0.0:_ZN4absl12lts_2023012513InitializeLogEv
libabsl_log_internal_check_op.so.2301.0.0:_ZN4absl12lts_2023012512log_internal17MakeCheckOpStringIPKaS4_EEPNSt7__cxx1112basic_stringIcSt11char_traitsIcESaIcEEET_T0_PKc
libabsl_log_internal_check_op.so.2301.0.0:_ZN4absl12lts_2023012512log_internal17MakeCheckOpStringIPKcS4_EEPNSt7__cxx1112basic_stringIcSt11char_traitsIcESaIcEEET_T0_S4_
libabsl_log_internal_check_op.so.2301.0.0:_ZN4absl12lts_2023012512log_internal17MakeCheckOpStringIPKhS4_EEPNSt7__cxx1112basic_stringIcSt11char_traitsIcESaIcEEET_T0_PKc
libabsl_log_internal_check_op.so.2301.0.0:_ZN4absl12lts_2023012512log_internal17MakeCheckOpStringIPKvS4_EEPNSt7__cxx1112basic_stringIcSt11char_traitsIcESaIcEEET_T0_PKc
libabsl_log_internal_check_op.so.2301.0.0:_ZN4absl12lts_2023012512log_internal17MakeCheckOpStringIRKNSt7__cxx1112basic_stringIcSt11char_traitsIcESaIcEEESA_EEPS8_T_T0_PKc
libabsl_log_internal_check_op.so.2301.0.0:_ZN4absl12lts_2023012512log_internal17MakeCheckOpStringIRKSt17basic_string_viewIcSt11char_traitsIcEES8_EEPNSt7__cxx1112basic_stringIcS5_SaIcEEET_T0_PKc
libabsl_log_internal_check_op.so.2301.0.0:_ZN4absl12lts_2023012512log_internal17MakeCheckOpStringIbbEEPNSt7__cxx1112basic_stringIcSt11char_traitsIcESaIcEEET_T0_PKc
libabsl_log_internal_check_op.so.2301.0.0:_ZN4absl12lts_2023012512log_internal17MakeCheckOpStringIccEEPNSt7__cxx1112basic_stringIcSt11char_traitsIcESaIcEEET_T0_PKc
libabsl_log_internal_check_op.so.2301.0.0:_ZN4absl12lts_2023012512log_internal17MakeCheckOpStringIddEEPNSt7__cxx1112basic_stringIcSt11char_traitsIcESaIcEEET_T0_PKc
libabsl_log_internal_check_op.so.2301.0.0:_ZN4absl12lts_2023012512log_internal17MakeCheckOpStringIffEEPNSt7__cxx1112basic_stringIcSt11char_traitsIcESaIcEEET_T0_PKc
libabsl_log_internal_check_op.so.2301.0.0:_ZN4absl12lts_2023012512log_internal17MakeCheckOpStringIhhEEPNSt7__cxx1112basic_stringIcSt11char_traitsIcESaIcEEET_T0_PKc
libabsl_log_internal_check_op.so.2301.0.0:_ZN4absl12lts_2023012512log_internal17MakeCheckOpStringIllEEPNSt7__cxx1112basic_stringIcSt11char_traitsIcESaIcEEET_T0_PKc
libabsl_log_internal_check_op.so.2301.0.0:_ZN4absl12lts_2023012512log_internal17MakeCheckOpStringImmEEPNSt7__cxx1112basic_stringIcSt11char_traitsIcESaIcEEET_T0_PKc
libabsl_log_internal_check_op.so.2301.0.0:_ZN4absl12lts_2023012512log_internal19CheckstrcmptrueImplB5cxx11EPKcS3_S3_
libabsl_log_internal_check_op.so.2301.0.0:_ZN4absl12lts_2023012512log_internal20CheckstrcmpfalseImplB5cxx11EPKcS3_S3_
libabsl_log_internal_check_op.so.2301.0.0:_ZN4absl12lts_2023012512log_internal21CheckOpMessageBuilder7ForVar2Ev
libabsl_log_internal_check_op.so.2301.0.0:_ZN4absl12lts_2023012512log_internal21CheckOpMessageBuilder9NewStringB5cxx11Ev
libabsl_log_internal_check_op.so.2301.0.0:_ZN4absl12lts_2023012512log_internal21CheckOpMessageBuilderC1EPKc
libabsl_log_internal_check_op.so.2301.0.0:_ZN4absl12lts_2023012512log_internal21CheckOpMessageBuilderC2EPKc
libabsl_log_internal_check_op.so.2301.0.0:_ZN4absl12lts_2023012512log_internal22MakeCheckOpValueStringERSoPKv
libabsl_log_internal_check_op.so.2301.0.0:_ZN4absl12lts_2023012512log_internal22MakeCheckOpValueStringERSoa
libabsl_log_internal_check_op.so.2301.0.0:_ZN4absl12lts_2023012512log_internal22MakeCheckOpValueStringERSoc
libabsl_log_internal_check_op.so.2301.0.0:_ZN4absl12lts_2023012512log_internal22MakeCheckOpValueStringERSoh
libabsl_log_internal_check_op.so.2301.0.0:_ZN4absl12lts_2023012512log_internal23CheckstrcasecmptrueImplB5cxx11EPKcS3_S3_
libabsl_log_internal_check_op.so.2301.0.0:_ZN4absl12lts_2023012512log_internal24CheckstrcasecmpfalseImplB5cxx11EPKcS3_S3_
libabsl_log_internal_conditions.so.2301.0.0:_ZN4absl12lts_2023012512log_internal14LogEveryNState9ShouldLogEi
libabsl_log_internal_conditions.so.2301.0.0:_ZN4absl12lts_2023012512log_internal14LogFirstNState9ShouldLogEi
libabsl_log_internal_conditions.so.2301.0.0:_ZN4absl12lts_2023012512log_internal17LogEveryNSecState9ShouldLogEd
libabsl_log_internal_conditions.so.2301.0.0:_ZN4absl12lts_2023012512log_internal17LogEveryPow2State9ShouldLogEv
libabsl_log_internal_format.so.2301.0.0:_ZN4absl12lts_2023012512log_internal15FormatLogPrefixENS0_11LogSeverityENS0_4TimeEiSt17basic_string_viewIcSt11char_traitsIcEEiNS1_12PrefixFormatERNS0_4SpanIcEE
libabsl_log_internal_format.so.2301.0.0:_ZN4absl12lts_2023012512log_internal16FormatLogMessageB5cxx11ENS0_11LogSeverityENS0_13time_internal4cctz6detail10civil_timeINS3_10second_tagEEENS0_8DurationEiSt17basic_string_viewIcSt11char_traitsIcEEiNS1_12PrefixFormatESD_
libabsl_log_internal_globals.so.2301.0.0:_ZN4absl12lts_2023012512log_internal11SetTimeZoneENS0_8TimeZoneE
libabsl_log_internal_globals.so.2301.0.0:_ZN4absl12lts_2023012512log_internal12ExitOnDFatalEv
libabsl_log_internal_globals.so.2301.0.0:_ZN4absl12lts_2023012512log_internal13IsInitializedEv
libabsl_log_internal_globals.so.2301.0.0:_ZN4absl12lts_2023012512log_internal13WriteToStderrESt17basic_string_viewIcSt11char_traitsIcEENS0_11LogSeverityE
libabsl_log_internal_globals.so.2301.0.0:_ZN4absl12lts_2023012512log_internal14SetInitializedEv
libabsl_log_internal_globals.so.2301.0.0:_ZN4absl12lts_2023012512log_internal15SetExitOnDFatalEb
libabsl_log_internal_globals.so.2301.0.0:_ZN4absl12lts_2023012512log_internal21SuppressSigabortTraceEv
libabsl_log_internal_globals.so.2301.0.0:_ZN4absl12lts_2023012512log_internal24MaxFramesInLogStackTraceEv
libabsl_log_internal_globals.so.2301.0.0:_ZN4absl12lts_2023012512log_internal24SetSuppressSigabortTraceEb
libabsl_log_internal_globals.so.2301.0.0:_ZN4absl12lts_2023012512log_internal27SetMaxFramesInLogStackTraceEi
libabsl_log_internal_globals.so.2301.0.0:_ZN4absl12lts_2023012512log_internal28EnableSymbolizeLogStackTraceEb
libabsl_log_internal_globals.so.2301.0.0:_ZN4absl12lts_2023012512log_internal28ShouldSymbolizeLogStackTraceEv
libabsl_log_internal_globals.so.2301.0.0:_ZN4absl12lts_2023012512log_internal8TimeZoneEv
libabsl_log_internal_log_sink_set.so.2301.0.0:_ZN4absl12lts_2023012512log_internal10AddLogSinkEPNS0_7LogSinkE
libabsl_log_internal_log_sink_set.so.2301.0.0:_ZN4absl12lts_2023012512log_internal10LogToSinksERKNS0_8LogEntryENS0_4SpanIPNS0_7LogSinkEEEb
libabsl_log_internal_log_sink_set.so.2301.0.0:_ZN4absl12lts_2023012512log_internal13FlushLogSinksEv
libabsl_log_internal_log_sink_set.so.2301.0.0:_ZN4absl12lts_2023012512log_internal13RemoveLogSinkEPNS0_7LogSinkE
libabsl_log_internal_log_sink_set.so.2301.0.0:_ZN4absl12lts_2023012512log_internal24ThreadIsLoggingToLogSinkEv
libabsl_log_internal_message.so.2301.0.0:AbslInternalOnFatalLogMessage_lts_20230125
libabsl_log_internal_message.so.2301.0.0:_ZN4absl12lts_2023012512log_internal10LogMessage10AtLocationESt17basic_string_viewIcSt11char_traitsIcEEi
libabsl_log_internal_message.so.2301.0.0:_ZN4absl12lts_2023012512log_internal10LogMessage10ToSinkAlsoEPNS0_7LogSinkE
libabsl_log_internal_message.so.2301.0.0:_ZN4absl12lts_2023012512log_internal10LogMessage10ToSinkOnlyEPNS0_7LogSinkE
libabsl_log_internal_message.so.2301.0.0:_ZN4absl12lts_2023012512log_internal10LogMessage10WithPerrorEv
libabsl_log_internal_message.so.2301.0.0:_ZN4absl12lts_2023012512log_internal10LogMessage11FailQuietlyEv
libabsl_log_internal_message.so.2301.0.0:_ZN4absl12lts_2023012512log_internal10LogMessage11OstreamView6streamEv
libabsl_log_internal_message.so.2301.0.0:_ZN4absl12lts_2023012512log_internal10LogMessage11OstreamViewC1ERNS2_14LogMessageDataE
libabsl_log_internal_message.so.2301.0.0:_ZN4absl12lts_2023012512log_internal10LogMessage11OstreamViewC2ERNS2_14LogMessageDataE
libabsl_log_internal_message.so.2301.0.0:_ZN4absl12lts_2023012512log_internal10LogMessage11OstreamViewD0Ev
libabsl_log_internal_message.so.2301.0.0:_ZN4absl12lts_2023012512log_internal10LogMessage11OstreamViewD1Ev
libabsl_log_internal_message.so.2301.0.0:_ZN4absl12lts_2023012512log_internal10LogMessage11OstreamViewD2Ev
libabsl_log_internal_message.so.2301.0.0:_ZN4absl12lts_2023012512log_internal10LogMessage12PrepareToDieEv
libabsl_log_internal_message.so.2301.0.0:_ZN4absl12lts_2023012512log_internal10LogMessage12WithThreadIDEi
libabsl_log_internal_message.so.2301.0.0:_ZN4absl12lts_2023012512log_internal10LogMessage13WithTimestampENS0_4TimeE
libabsl_log_internal_message.so.2301.0.0:_ZN4absl12lts_2023012512log_internal10LogMessage13WithVerbosityEi
libabsl_log_internal_message.so.2301.0.0:_ZN4absl12lts_2023012512log_internal10LogMessage14LogMessageData25FinalizeEncodingAndFormatEv
libabsl_log_internal_message.so.2301.0.0:_ZN4absl12lts_2023012512log_internal10LogMessage14LogMessageDataC1EPKciNS0_11LogSeverityENS0_4TimeE
libabsl_log_internal_message.so.2301.0.0:_ZN4absl12lts_2023012512log_internal10LogMessage14LogMessageDataC2EPKciNS0_11LogSeverityENS0_4TimeE
libabsl_log_internal_message.so.2301.0.0:_ZN4absl12lts_2023012512log_internal10LogMessage14SetFailQuietlyEv
libabsl_log_internal_message.so.2301.0.0:_ZN4absl12lts_2023012512log_internal10LogMessage16WithMetadataFromERKNS0_8LogEntryE
libabsl_log_internal_message.so.2301.0.0:_ZN4absl12lts_2023012512log_internal10LogMessage19CopyToEncodedBufferESt17basic_string_viewIcSt11char_traitsIcEENS2_10StringTypeE
libabsl_log_internal_message.so.2301.0.0:_ZN4absl12lts_2023012512log_internal10LogMessage19CopyToEncodedBufferEcmNS2_10StringTypeE
libabsl_log_internal_message.so.2301.0.0:_ZN4absl12lts_2023012512log_internal10LogMessage20LogBacktraceIfNeededEv
libabsl_log_internal_message.so.2301.0.0:_ZN4absl12lts_2023012512log_internal10LogMessage21FailWithoutStackTraceEv
libabsl_log_internal_message.so.2301.0.0:_ZN4absl12lts_2023012512log_internal10LogMessage3DieEv
libabsl_log_internal_message.so.2301.0.0:_ZN4absl12lts_2023012512log_internal10LogMessage5FlushEv
libabsl_log_internal_message.so.2301.0.0:_ZN4absl12lts_2023012512log_internal10LogMessage8NoPrefixEv
libabsl_log_internal_message.so.2301.0.0:_ZN4absl12lts_2023012512log_internal10LogMessage9SendToLogEv
libabsl_log_internal_message.so.2301.0.0:_ZN4absl12lts_2023012512log_internal10LogMessageC1EPKciNS0_11LogSeverityE
libabsl_log_internal_message.so.2301.0.0:_ZN4absl12lts_2023012512log_internal10LogMessageC2EPKciNS0_11LogSeverityE
libabsl_log_internal_message.so.2301.0.0:_ZN4absl12lts_2023012512log_internal10LogMessageD1Ev
libabsl_log_internal_message.so.2301.0.0:_ZN4absl12lts_2023012512log_internal10LogMessageD2Ev
libabsl_log_internal_message.so.2301.0.0:_ZN4absl12lts_2023012512log_internal10LogMessagelsEPFRSoS3_E
libabsl_log_internal_message.so.2301.0.0:_ZN4absl12lts_2023012512log_internal10LogMessagelsEPFRSt8ios_baseS4_E
libabsl_log_internal_message.so.2301.0.0:_ZN4absl12lts_2023012512log_internal10LogMessagelsERKNSt7__cxx1112basic_stringIcSt11char_traitsIcESaIcEEE
libabsl_log_internal_message.so.2301.0.0:_ZN4absl12lts_2023012512log_internal10LogMessagelsESt17basic_string_viewIcSt11char_traitsIcEE
libabsl_log_internal_message.so.2301.0.0:_ZN4absl12lts_2023012512log_internal10LogMessagelsIPKvLi0EEERS2_RKT_
libabsl_log_internal_message.so.2301.0.0:_ZN4absl12lts_2023012512log_internal10LogMessagelsIPvLi0EEERS2_RKT_
libabsl_log_internal_message.so.2301.0.0:_ZN4absl12lts_2023012512log_internal10LogMessagelsIaLi0EEERS2_RKT_
libabsl_log_internal_message.so.2301.0.0:_ZN4absl12lts_2023012512log_internal10LogMessagelsIbLi0EEERS2_RKT_
libabsl_log_internal_message.so.2301.0.0:_ZN4absl12lts_2023012512log_internal10LogMessagelsIcLi0EEERS2_RKT_
libabsl_log_internal_message.so.2301.0.0:_ZN4absl12lts_2023012512log_internal10LogMessagelsIdLi0EEERS2_RKT_
libabsl_log_internal_message.so.2301.0.0:_ZN4absl12lts_2023012512log_internal10LogMessagelsIfLi0EEERS2_RKT_
libabsl_log_internal_message.so.2301.0.0:_ZN4absl12lts_2023012512log_internal10LogMessagelsIhLi0EEERS2_RKT_
libabsl_log_internal_message.so.2301.0.0:_ZN4absl12lts_2023012512log_internal10LogMessagelsIiLi0EEERS2_RKT_
libabsl_log_internal_message.so.2301.0.0:_ZN4absl12lts_2023012512log_internal10LogMessagelsIjLi0EEERS2_RKT_
libabsl_log_internal_message.so.2301.0.0:_ZN4absl12lts_2023012512log_internal10LogMessagelsIlLi0EEERS2_RKT_
libabsl_log_internal_message.so.2301.0.0:_ZN4absl12lts_2023012512log_internal10LogMessagelsImLi0EEERS2_RKT_
libabsl_log_internal_message.so.2301.0.0:_ZN4absl12lts_2023012512log_internal10LogMessagelsIsLi0EEERS2_RKT_
libabsl_log_internal_message.so.2301.0.0:_ZN4absl12lts_2023012512log_internal10LogMessagelsItLi0EEERS2_RKT_
libabsl_log_internal_message.so.2301.0.0:_ZN4absl12lts_2023012512log_internal10LogMessagelsIxLi0EEERS2_RKT_
libabsl_log_internal_message.so.2301.0.0:_ZN4absl12lts_2023012512log_internal10LogMessagelsIyLi0EEERS2_RKT_
libabsl_log_internal_message.so.2301.0.0:_ZN4absl12lts_2023012512log_internal15LogMessageFatalC1EPKci
libabsl_log_internal_message.so.2301.0.0:_ZN4absl12lts_2023012512log_internal15LogMessageFatalC1EPKciSt17basic_string_viewIcSt11char_traitsIcEE
libabsl_log_internal_message.so.2301.0.0:_ZN4absl12lts_2023012512log_internal15LogMessageFatalC2EPKci
libabsl_log_internal_message.so.2301.0.0:_ZN4absl12lts_2023012512log_internal15LogMessageFatalC2EPKciSt17basic_string_viewIcSt11char_traitsIcEE
libabsl_log_internal_message.so.2301.0.0:_ZN4absl12lts_2023012512log_internal15LogMessageFatalD1Ev
libabsl_log_internal_message.so.2301.0.0:_ZN4absl12lts_2023012512log_internal15LogMessageFatalD2Ev
libabsl_log_internal_message.so.2301.0.0:_ZN4absl12lts_2023012512log_internal22LogMessageQuietlyFatalC1EPKci
libabsl_log_internal_message.so.2301.0.0:_ZN4absl12lts_2023012512log_internal22LogMessageQuietlyFatalC1EPKciSt17basic_string_viewIcSt11char_traitsIcEE
libabsl_log_internal_message.so.2301.0.0:_ZN4absl12lts_2023012512log_internal22LogMessageQuietlyFatalC2EPKci
libabsl_log_internal_message.so.2301.0.0:_ZN4absl12lts_2023012512log_internal22LogMessageQuietlyFatalC2EPKciSt17basic_string_viewIcSt11char_traitsIcEE
libabsl_log_internal_message.so.2301.0.0:_ZN4absl12lts_2023012512log_internal22LogMessageQuietlyFatalD1Ev
libabsl_log_internal_message.so.2301.0.0:_ZN4absl12lts_2023012512log_internal22LogMessageQuietlyFatalD2Ev
libabsl_log_internal_message.so.2301.0.0:_ZNK4absl12lts_2023012512log_internal10LogMessage7IsFatalEv
libabsl_log_internal_proto.so.2301.0.0:_ZN4absl12lts_2023012512log_internal10ProtoField10DecodeFromEPNS0_4SpanIKcEE
libabsl_log_internal_proto.so.2301.0.0:_ZN4absl12lts_2023012512log_internal11Encode32BitEmjPNS0_4SpanIcEE
libabsl_log_internal_proto.so.2301.0.0:_ZN4absl12lts_2023012512log_internal11Encode64BitEmmPNS0_4SpanIcEE
libabsl_log_internal_proto.so.2301.0.0:_ZN4absl12lts_2023012512log_internal11EncodeBytesEmNS0_4SpanIKcEEPNS2_IcEE
libabsl_log_internal_proto.so.2301.0.0:_ZN4absl12lts_2023012512log_internal12EncodeVarintEmmPNS0_4SpanIcEE
libabsl_log_internal_proto.so.2301.0.0:_ZN4absl12lts_2023012512log_internal18EncodeMessageStartEmmPNS0_4SpanIcEE
libabsl_log_internal_proto.so.2301.0.0:_ZN4absl12lts_2023012512log_internal19EncodeBytesTruncateEmNS0_4SpanIKcEEPNS2_IcEE
libabsl_log_internal_proto.so.2301.0.0:_ZN4absl12lts_2023012512log_internal19EncodeMessageLengthENS0_4SpanIcEEPKS3_
libabsl_log_severity.so.2301.0.0:_ZN4absl12lts_20230125lsERSoNS0_11LogSeverityE
libabsl_log_severity.so.2301.0.0:_ZN4absl12lts_20230125lsERSoNS0_17LogSeverityAtMostE
libabsl_log_severity.so.2301.0.0:_ZN4absl12lts_20230125lsERSoNS0_18LogSeverityAtLeastE
libabsl_log_sink.so.2301.0.0:_ZNK4absl12lts_202301257LogSink11KeyFunctionEv
libabsl_low_level_hash.so.2301.0.0:_ZN4absl12lts_2023012513hash_internal12LowLevelHashEPKvmmPKm
libabsl_malloc_internal.so.2301.0.0:_ZN4absl12lts_2023012513base_internal13LowLevelAlloc11DeleteArenaEPNS2_5ArenaE
libabsl_malloc_internal.so.2301.0.0:_ZN4absl12lts_2023012513base_internal13LowLevelAlloc12DefaultArenaEv
libabsl_malloc_internal.so.2301.0.0:_ZN4absl12lts_2023012513base_internal13LowLevelAlloc5ArenaC1Ej
libabsl_malloc_internal.so.2301.0.0:_ZN4absl12lts_2023012513base_internal13LowLevelAlloc5ArenaC2Ej
libabsl_malloc_internal.so.2301.0.0:_ZN4absl12lts_2023012513base_internal13LowLevelAlloc8NewArenaEj
libabsl_periodic_sampler.so.2301.0.0:_ZN4absl12lts_2023012518profiling_internal19PeriodicSamplerBase19SubtleConfirmSampleEv
libabsl_periodic_sampler.so.2301.0.0:_ZN4absl12lts_2023012518profiling_internal19PeriodicSamplerBase20GetExponentialBiasedEi
libabsl_random_distributions.so.2301.0.0:_ZN4absl12lts_2023012515random_internal24InitDiscreteDistributionEPSt6vectorIdSaIdEE
libabsl_random_internal_distribution_test_util.so.2301.0.0:_ZN4absl12lts_2023012515random_internal14BetaIncompleteEddd
libabsl_random_internal_distribution_test_util.so.2301.0.0:_ZN4absl12lts_2023012515random_internal14ChiSquareValueEid
libabsl_random_internal_distribution_test_util.so.2301.0.0:_ZN4absl12lts_2023012515random_internal15ChiSquarePValueEdi
libabsl_random_internal_distribution_test_util.so.2301.0.0:_ZN4absl12lts_2023012515random_internal17BetaIncompleteInvEddd
libabsl_random_internal_distribution_test_util.so.2301.0.0:_ZN4absl12lts_2023012515random_internal17MaxErrorToleranceEd
libabsl_random_internal_distribution_test_util.so.2301.0.0:_ZN4absl12lts_2023012515random_internal21InverseNormalSurvivalEd
libabsl_random_internal_distribution_test_util.so.2301.0.0:_ZN4absl12lts_2023012515random_internal26ComputeDistributionMomentsENS0_4SpanIKdEE
libabsl_random_internal_distribution_test_util.so.2301.0.0:_ZN4absl12lts_2023012515random_internal26RequiredSuccessProbabilityEdi
libabsl_random_internal_distribution_test_util.so.2301.0.0:_ZN4absl12lts_2023012515random_internal4NearESt17basic_string_viewIcSt11char_traitsIcEEddd
libabsl_random_internal_distribution_test_util.so.2301.0.0:_ZN4absl12lts_2023012515random_internal4betaEdd
libabsl_random_internal_distribution_test_util.so.2301.0.0:_ZN4absl12lts_2023012515random_internal6ZScoreEdRKNS1_19DistributionMomentsE
libabsl_random_internal_distribution_test_util.so.2301.0.0:_ZN4absl12lts_2023012515random_internal6erfinvEd
libabsl_random_internal_distribution_test_util.so.2301.0.0:_ZN4absl12lts_2023012515random_internallsERSoRKNS1_19DistributionMomentsE
libabsl_random_internal_pool_urbg.so.2301.0.0:_ZN4absl12lts_2023012515random_internal10RandenPoolIhE3maxEv
libabsl_random_internal_pool_urbg.so.2301.0.0:_ZN4absl12lts_2023012515random_internal10RandenPoolIhE3minEv
libabsl_random_internal_pool_urbg.so.2301.0.0:_ZN4absl12lts_2023012515random_internal10RandenPoolIhE4FillENS0_4SpanIhEE
libabsl_random_internal_pool_urbg.so.2301.0.0:_ZN4absl12lts_2023012515random_internal10RandenPoolIhE8GenerateEv
libabsl_random_internal_pool_urbg.so.2301.0.0:_ZN4absl12lts_2023012515random_internal10RandenPoolIhEC1Ev
libabsl_random_internal_pool_urbg.so.2301.0.0:_ZN4absl12lts_2023012515random_internal10RandenPoolIhEC2Ev
libabsl_random_internal_pool_urbg.so.2301.0.0:_ZN4absl12lts_2023012515random_internal10RandenPoolIhEclEv
libabsl_random_internal_pool_urbg.so.2301.0.0:_ZN4absl12lts_2023012515random_internal10RandenPoolIjE3maxEv
libabsl_random_internal_pool_urbg.so.2301.0.0:_ZN4absl12lts_2023012515random_internal10RandenPoolIjE3minEv
libabsl_random_internal_pool_urbg.so.2301.0.0:_ZN4absl12lts_2023012515random_internal10RandenPoolIjE4FillENS0_4SpanIjEE
libabsl_random_internal_pool_urbg.so.2301.0.0:_ZN4absl12lts_2023012515random_internal10RandenPoolIjE8GenerateEv
libabsl_random_internal_pool_urbg.so.2301.0.0:_ZN4absl12lts_2023012515random_internal10RandenPoolIjEC1Ev
libabsl_random_internal_pool_urbg.so.2301.0.0:_ZN4absl12lts_2023012515random_internal10RandenPoolIjEC2Ev
libabsl_random_internal_pool_urbg.so.2301.0.0:_ZN4absl12lts_2023012515random_internal10RandenPoolIjEclEv
libabsl_random_internal_pool_urbg.so.2301.0.0:_ZN4absl12lts_2023012515random_internal10RandenPoolImE3maxEv
libabsl_random_internal_pool_urbg.so.2301.0.0:_ZN4absl12lts_2023012515random_internal10RandenPoolImE3minEv
libabsl_random_internal_pool_urbg.so.2301.0.0:_ZN4absl12lts_2023012515random_internal10RandenPoolImE4FillENS0_4SpanImEE
libabsl_random_internal_pool_urbg.so.2301.0.0:_ZN4absl12lts_2023012515random_internal10RandenPoolImE8GenerateEv
libabsl_random_internal_pool_urbg.so.2301.0.0:_ZN4absl12lts_2023012515random_internal10RandenPoolImEC1Ev
libabsl_random_internal_pool_urbg.so.2301.0.0:_ZN4absl12lts_2023012515random_internal10RandenPoolImEC2Ev
libabsl_random_internal_pool_urbg.so.2301.0.0:_ZN4absl12lts_2023012515random_internal10RandenPoolImEclEv
libabsl_random_internal_pool_urbg.so.2301.0.0:_ZN4absl12lts_2023012515random_internal10RandenPoolItE3maxEv
libabsl_random_internal_pool_urbg.so.2301.0.0:_ZN4absl12lts_2023012515random_internal10RandenPoolItE3minEv
libabsl_random_internal_pool_urbg.so.2301.0.0:_ZN4absl12lts_2023012515random_internal10RandenPoolItE4FillENS0_4SpanItEE
libabsl_random_internal_pool_urbg.so.2301.0.0:_ZN4absl12lts_2023012515random_internal10RandenPoolItE8GenerateEv
libabsl_random_internal_pool_urbg.so.2301.0.0:_ZN4absl12lts_2023012515random_internal10RandenPoolItEC1Ev
libabsl_random_internal_pool_urbg.so.2301.0.0:_ZN4absl12lts_2023012515random_internal10RandenPoolItEC2Ev
libabsl_random_internal_pool_urbg.so.2301.0.0:_ZN4absl12lts_2023012515random_internal10RandenPoolItEclEv
libabsl_random_internal_randen.so.2301.0.0:_ZN4absl12lts_2023012515random_internal6RandenC1Ev
libabsl_random_internal_randen.so.2301.0.0:_ZN4absl12lts_2023012515random_internal6RandenC2Ev
libabsl_random_internal_randen_hwaes.so.2301.0.0:_ZN4absl12lts_2023012515random_internal22CPUSupportsRandenHwAesEv
libabsl_random_internal_randen_hwaes_impl.so.2301.0.0:_ZN4absl12lts_2023012515random_internal11RandenHwAes6AbsorbEPKvPv
libabsl_random_internal_randen_hwaes_impl.so.2301.0.0:_ZN4absl12lts_2023012515random_internal11RandenHwAes7GetKeysEv
libabsl_random_internal_randen_hwaes_impl.so.2301.0.0:_ZN4absl12lts_2023012515random_internal11RandenHwAes8GenerateEPKvPv
libabsl_random_internal_randen_hwaes_impl.so.2301.0.0:_ZN4absl12lts_2023012515random_internal28HasRandenHwAesImplementationEv
libabsl_random_internal_randen_slow.so.2301.0.0:_ZN4absl12lts_2023012515random_internal10RandenSlow6AbsorbEPKvPv
libabsl_random_internal_randen_slow.so.2301.0.0:_ZN4absl12lts_2023012515random_internal10RandenSlow7GetKeysEv
libabsl_random_internal_randen_slow.so.2301.0.0:_ZN4absl12lts_2023012515random_internal10RandenSlow8GenerateEPKvPv
libabsl_random_internal_seed_material.so.2301.0.0:_ZN4absl12lts_2023012515random_internal15GetSaltMaterialEv
libabsl_random_internal_seed_material.so.2301.0.0:_ZN4absl12lts_2023012515random_internal19MixIntoSeedMaterialENS0_4SpanIKjEENS2_IjEE
libabsl_random_internal_seed_material.so.2301.0.0:_ZN4absl12lts_2023012515random_internal29ReadSeedMaterialFromOSEntropyENS0_4SpanIjEE
libabsl_random_seed_gen_exception.so.2301.0.0:_ZN4absl12lts_2023012515random_internal21ThrowSeedGenExceptionEv
libabsl_random_seed_gen_exception.so.2301.0.0:_ZN4absl12lts_2023012516SeedGenExceptionD0Ev
libabsl_random_seed_gen_exception.so.2301.0.0:_ZN4absl12lts_2023012516SeedGenExceptionD1Ev
libabsl_random_seed_gen_exception.so.2301.0.0:_ZN4absl12lts_2023012516SeedGenExceptionD2Ev
libabsl_random_seed_gen_exception.so.2301.0.0:_ZNK4absl12lts_2023012516SeedGenException4whatEv
libabsl_random_seed_sequences.so.2301.0.0:_ZN4absl12lts_2023012511MakeSeedSeqEv
libabsl_raw_hash_set.so.2301.0.0:_ZN4absl12lts_2023012518container_internal13EraseMetaOnlyERNS1_12CommonFieldsEPNS1_6ctrl_tEm
libabsl_raw_hash_set.so.2301.0.0:_ZN4absl12lts_2023012518container_internal17ClearBackingArrayERNS1_12CommonFieldsERKNS1_15PolicyFunctionsEb
libabsl_raw_hash_set.so.2301.0.0:_ZN4absl12lts_2023012518container_internal19find_first_non_fullIvEENS1_8FindInfoERKNS1_12CommonFieldsEm
libabsl_raw_hash_set.so.2301.0.0:_ZN4absl12lts_2023012518container_internal21ShouldInsertBackwardsEmPKNS1_6ctrl_tE
libabsl_raw_hash_set.so.2301.0.0:_ZN4absl12lts_2023012518container_internal24DropDeletesWithoutResizeERNS1_12CommonFieldsERKNS1_15PolicyFunctionsEPv
libabsl_raw_hash_set.so.2301.0.0:_ZN4absl12lts_2023012518container_internal29find_first_non_full_outoflineERKNS1_12CommonFieldsEm
libabsl_raw_hash_set.so.2301.0.0:_ZN4absl12lts_2023012518container_internal37ConvertDeletedToEmptyAndFullToDeletedEPNS1_6ctrl_tEm
libabsl_raw_logging_internal.so.2301.0.0:_ZN4absl12lts_2023012513base_internal10AtomicHookIPFvPKciS4_S4_S4_EE13DummyFunctionES4_iS4_S4_S4_
libabsl_raw_logging_internal.so.2301.0.0:_ZN4absl12lts_2023012516raw_log_internal17RegisterAbortHookEPFvPKciS3_S3_S3_E
libabsl_raw_logging_internal.so.2301.0.0:_ZN4absl12lts_2023012516raw_log_internal24RawLoggingFullySupportedEv
libabsl_raw_logging_internal.so.2301.0.0:_ZN4absl12lts_2023012516raw_log_internal27RegisterInternalLogFunctionEPFvNS0_11LogSeverityEPKciRKNSt7__cxx1112basic_stringIcSt11char_traitsIcESaIcEEEE
libabsl_raw_logging_internal.so.2301.0.0:_ZN4absl12lts_2023012516raw_log_internal28AsyncSignalSafeWriteToStderrEPKcm
libabsl_raw_logging_internal.so.2301.0.0:_ZN4absl12lts_2023012516raw_log_internal30RegisterLogFilterAndPrefixHookEPFbNS0_11LogSeverityEPKciPPcPiE
libabsl_raw_logging_internal.so.2301.0.0:_ZN4absl12lts_2023012516raw_log_internal6RawLogENS0_11LogSeverityEPKciS4_z
libabsl_scoped_set_env.so.2301.0.0:_ZN4absl12lts_2023012513base_internal12ScopedSetEnvC1EPKcS4_
libabsl_scoped_set_env.so.2301.0.0:_ZN4absl12lts_2023012513base_internal12ScopedSetEnvC2EPKcS4_
libabsl_scoped_set_env.so.2301.0.0:_ZN4absl12lts_2023012513base_internal12ScopedSetEnvD1Ev
libabsl_scoped_set_env.so.2301.0.0:_ZN4absl12lts_2023012513base_internal12ScopedSetEnvD2Ev
libabsl_spinlock_wait.so.2301.0.0:AbslInternalSpinLockDelay_lts_20230125
libabsl_spinlock_wait.so.2301.0.0:AbslInternalSpinLockWake_lts_20230125
libabsl_spinlock_wait.so.2301.0.0:_ZN4absl12lts_2023012513base_internal12SpinLockWaitEPSt6atomicIjEiPKNS1_22SpinLockWaitTransitionENS1_14SchedulingModeE
libabsl_spinlock_wait.so.2301.0.0:_ZN4absl12lts_2023012513base_internal24SpinLockSuggestedDelayNSEi
libabsl_stacktrace.so.2301.0.0:_ZN4absl12lts_2023012513GetStackTraceEPPvii
libabsl_stacktrace.so.2301.0.0:_ZN4absl12lts_2023012514GetStackFramesEPPvPiii
libabsl_stacktrace.so.2301.0.0:_ZN4absl12lts_2023012516SetStackUnwinderEPFiPPvPiiiPKvS3_E
libabsl_stacktrace.so.2301.0.0:_ZN4absl12lts_2023012518debugging_internal22StackTraceWorksForTestEv
libabsl_stacktrace.so.2301.0.0:_ZN4absl12lts_2023012520DefaultStackUnwinderEPPvPiiiPKvS3_
libabsl_stacktrace.so.2301.0.0:_ZN4absl12lts_2023012524GetStackTraceWithContextEPPviiPKvPi
libabsl_stacktrace.so.2301.0.0:_ZN4absl12lts_2023012525GetStackFramesWithContextEPPvPiiiPKvS3_
libabsl_status.so.2301.0.0:_ZN4absl12lts_2023012510IsDataLossERKNS0_6StatusE
libabsl_status.so.2301.0.0:_ZN4absl12lts_2023012510IsInternalERKNS0_6StatusE
libabsl_status.so.2301.0.0:_ZN4absl12lts_2023012510IsNotFoundERKNS0_6StatusE
libabsl_status.so.2301.0.0:_ZN4absl12lts_2023012511IsCancelledERKNS0_6StatusE
libabsl_status.so.2301.0.0:_ZN4absl12lts_2023012512AbortedErrorESt17basic_string_viewIcSt11char_traitsIcEE
libabsl_status.so.2301.0.0:_ZN4absl12lts_2023012512IsOutOfRangeERKNS0_6StatusE
libabsl_status.so.2301.0.0:_ZN4absl12lts_2023012512UnknownErrorESt17basic_string_viewIcSt11char_traitsIcEE
libabsl_status.so.2301.0.0:_ZN4absl12lts_2023012513DataLossErrorESt17basic_string_viewIcSt11char_traitsIcEE
libabsl_status.so.2301.0.0:_ZN4absl12lts_2023012513ErrnoToStatusEiSt17basic_string_viewIcSt11char_traitsIcEE
libabsl_status.so.2301.0.0:_ZN4absl12lts_2023012513InternalErrorESt17basic_string_viewIcSt11char_traitsIcEE
libabsl_status.so.2301.0.0:_ZN4absl12lts_2023012513IsUnavailableERKNS0_6StatusE
libabsl_status.so.2301.0.0:_ZN4absl12lts_2023012513NotFoundErrorESt17basic_string_viewIcSt11char_traitsIcEE
libabsl_status.so.2301.0.0:_ZN4absl12lts_2023012513base_internal10AtomicHookIPFSt8optionalINSt7__cxx1112basic_stringIcSt11char_traitsIcESaIcEEEESt17basic_string_viewIcS7_ERKNS0_4CordEEE13DummyFunctionESC_SF_
libabsl_status.so.2301.0.0:_ZN4absl12lts_2023012514CancelledErrorESt17basic_string_viewIcSt11char_traitsIcEE
libabsl_status.so.2301.0.0:_ZN4absl12lts_2023012515IsAlreadyExistsERKNS0_6StatusE
libabsl_status.so.2301.0.0:_ZN4absl12lts_2023012515IsUnimplementedERKNS0_6StatusE
libabsl_status.so.2301.0.0:_ZN4absl12lts_2023012515OutOfRangeErrorESt17basic_string_viewIcSt11char_traitsIcEE
libabsl_status.so.2301.0.0:_ZN4absl12lts_2023012515status_internal14MapToLocalCodeEi
libabsl_status.so.2301.0.0:_ZN4absl12lts_2023012515status_internal19MakeCheckFailStringB5cxx11EPKNS0_6StatusEPKc
libabsl_status.so.2301.0.0:_ZN4absl12lts_2023012515status_internal23GetStatusPayloadPrinterB5cxx11Ev
libabsl_status.so.2301.0.0:_ZN4absl12lts_2023012515status_internal23SetStatusPayloadPrinterEPFSt8optionalINSt7__cxx1112basic_stringIcSt11char_traitsIcESaIcEEEESt17basic_string_viewIcS6_ERKNS0_4CordEE
libabsl_status.so.2301.0.0:_ZN4absl12lts_2023012516UnavailableErrorESt17basic_string_viewIcSt11char_traitsIcEE
libabsl_status.so.2301.0.0:_ZN4absl12lts_2023012517ErrnoToStatusCodeEi
libabsl_status.so.2301.0.0:_ZN4absl12lts_2023012517IsInvalidArgumentERKNS0_6StatusE
libabsl_status.so.2301.0.0:_ZN4absl12lts_2023012517IsUnauthenticatedERKNS0_6StatusE
libabsl_status.so.2301.0.0:_ZN4absl12lts_2023012518AlreadyExistsErrorESt17basic_string_viewIcSt11char_traitsIcEE
libabsl_status.so.2301.0.0:_ZN4absl12lts_2023012518IsDeadlineExceededERKNS0_6StatusE
libabsl_status.so.2301.0.0:_ZN4absl12lts_2023012518IsPermissionDeniedERKNS0_6StatusE
libabsl_status.so.2301.0.0:_ZN4absl12lts_2023012518StatusCodeToStringB5cxx11ENS0_10StatusCodeE
libabsl_status.so.2301.0.0:_ZN4absl12lts_2023012518UnimplementedErrorESt17basic_string_viewIcSt11char_traitsIcEE
libabsl_status.so.2301.0.0:_ZN4absl12lts_2023012519IsResourceExhaustedERKNS0_6StatusE
libabsl_status.so.2301.0.0:_ZN4absl12lts_2023012520InvalidArgumentErrorESt17basic_string_viewIcSt11char_traitsIcEE
libabsl_status.so.2301.0.0:_ZN4absl12lts_2023012520IsFailedPreconditionERKNS0_6StatusE
libabsl_status.so.2301.0.0:_ZN4absl12lts_2023012520UnauthenticatedErrorESt17basic_string_viewIcSt11char_traitsIcEE
libabsl_status.so.2301.0.0:_ZN4absl12lts_2023012521DeadlineExceededErrorESt17basic_string_viewIcSt11char_traitsIcEE
libabsl_status.so.2301.0.0:_ZN4absl12lts_2023012521PermissionDeniedErrorESt17basic_string_viewIcSt11char_traitsIcEE
libabsl_status.so.2301.0.0:_ZN4absl12lts_2023012522ResourceExhaustedErrorESt17basic_string_viewIcSt11char_traitsIcEE
libabsl_status.so.2301.0.0:_ZN4absl12lts_2023012523FailedPreconditionErrorESt17basic_string_viewIcSt11char_traitsIcEE
libabsl_status.so.2301.0.0:_ZN4absl12lts_202301256Status10EqualsSlowERKS1_S3_
libabsl_status.so.2301.0.0:_ZN4absl12lts_202301256Status10SetPayloadESt17basic_string_viewIcSt11char_traitsIcEENS0_4CordE
libabsl_status.so.2301.0.0:_ZN4absl12lts_202301256Status11EmptyStringB5cxx11Ev
libabsl_status.so.2301.0.0:_ZN4absl12lts_202301256Status12ErasePayloadESt17basic_string_viewIcSt11char_traitsIcEE
libabsl_status.so.2301.0.0:_ZN4absl12lts_202301256Status15MovedFromStringB5cxx11Ev
libabsl_status.so.2301.0.0:_ZN4absl12lts_202301256Status15PrepareToModifyEv
libabsl_status.so.2301.0.0:_ZN4absl12lts_202301256Status15UnrefNonInlinedEm
libabsl_status.so.2301.0.0:_ZN4absl12lts_202301256StatusC1ENS0_10StatusCodeESt17basic_string_viewIcSt11char_traitsIcEE
libabsl_status.so.2301.0.0:_ZN4absl12lts_202301256StatusC2ENS0_10StatusCodeESt17basic_string_viewIcSt11char_traitsIcEE
libabsl_status.so.2301.0.0:_ZN4absl12lts_202301259IsAbortedERKNS0_6StatusE
libabsl_status.so.2301.0.0:_ZN4absl12lts_202301259IsUnknownERKNS0_6StatusE
libabsl_status.so.2301.0.0:_ZN4absl12lts_20230125lsERSoNS0_10StatusCodeE
libabsl_status.so.2301.0.0:_ZN4absl12lts_20230125lsERSoRKNS0_6StatusE
libabsl_status.so.2301.0.0:_ZNK4absl12lts_202301256Status10GetPayloadESt17basic_string_viewIcSt11char_traitsIcEE
libabsl_status.so.2301.0.0:_ZNK4absl12lts_202301256Status12ToStringSlowB5cxx11ENS0_18StatusToStringModeE
libabsl_status.so.2301.0.0:_ZNK4absl12lts_202301256Status14ForEachPayloadENS0_11FunctionRefIFvSt17basic_string_viewIcSt11char_traitsIcEERKNS0_4CordEEEE
libabsl_status.so.2301.0.0:_ZNK4absl12lts_202301256Status4codeEv
libabsl_status.so.2301.0.0:_ZNK4absl12lts_202301256Status8raw_codeEv
libabsl_statusor.so.2301.0.0:_ZN4absl12lts_2023012517BadStatusOrAccessC1ENS0_6StatusE
libabsl_statusor.so.2301.0.0:_ZN4absl12lts_2023012517BadStatusOrAccessC1EOS1_
libabsl_statusor.so.2301.0.0:_ZN4absl12lts_2023012517BadStatusOrAccessC1ERKS1_
libabsl_statusor.so.2301.0.0:_ZN4absl12lts_2023012517BadStatusOrAccessC2ENS0_6StatusE
libabsl_statusor.so.2301.0.0:_ZN4absl12lts_2023012517BadStatusOrAccessC2EOS1_
libabsl_statusor.so.2301.0.0:_ZN4absl12lts_2023012517BadStatusOrAccessC2ERKS1_
libabsl_statusor.so.2301.0.0:_ZN4absl12lts_2023012517BadStatusOrAccessaSEOS1_
libabsl_statusor.so.2301.0.0:_ZN4absl12lts_2023012517BadStatusOrAccessaSERKS1_
libabsl_statusor.so.2301.0.0:_ZN4absl12lts_2023012517internal_statusor22ThrowBadStatusOrAccessENS0_6StatusE
libabsl_statusor.so.2301.0.0:_ZN4absl12lts_2023012517internal_statusor6Helper26HandleInvalidStatusCtorArgEPNS0_6StatusE
libabsl_statusor.so.2301.0.0:_ZN4absl12lts_2023012517internal_statusor6Helper5CrashERKNS0_6StatusE
libabsl_statusor.so.2301.0.0:_ZNK4absl12lts_2023012517BadStatusOrAccess4whatEv
libabsl_statusor.so.2301.0.0:_ZNK4absl12lts_2023012517BadStatusOrAccess6statusEv
libabsl_statusor.so.2301.0.0:_ZNK4absl12lts_2023012517BadStatusOrAccess8InitWhatEv
libabsl_str_format_internal.so.2301.0.0:_ZN4absl12lts_2023012519str_format_internal10AppendPackEPNSt7__cxx1112basic_stringIcSt11char_traitsIcESaIcEEENS1_21UntypedFormatSpecImplENS0_4SpanIKNS1_13FormatArgImplEEE
libabsl_str_format_internal.so.2301.0.0:_ZN4absl12lts_2023012519str_format_internal10FormatPackB5cxx11ENS1_21UntypedFormatSpecImplENS0_4SpanIKNS1_13FormatArgImplEEE
libabsl_str_format_internal.so.2301.0.0:_ZN4absl12lts_2023012519str_format_internal11FILERawSink5WriteESt17basic_string_viewIcSt11char_traitsIcEE
libabsl_str_format_internal.so.2301.0.0:_ZN4absl12lts_2023012519str_format_internal12BindWithPackEPKNS1_17UnboundConversionENS0_4SpanIKNS1_13FormatArgImplEEEPNS1_15BoundConversionE
libabsl_str_format_internal.so.2301.0.0:_ZN4absl12lts_2023012519str_format_internal13BufferRawSink5WriteESt17basic_string_viewIcSt11char_traitsIcEE
libabsl_str_format_internal.so.2301.0.0:_ZN4absl12lts_2023012519str_format_internal13ConvertIntArgIaEEbT_NS1_24FormatConversionSpecImplEPNS1_14FormatSinkImplE
libabsl_str_format_internal.so.2301.0.0:_ZN4absl12lts_2023012519str_format_internal13ConvertIntArgIcEEbT_NS1_24FormatConversionSpecImplEPNS1_14FormatSinkImplE
libabsl_str_format_internal.so.2301.0.0:_ZN4absl12lts_2023012519str_format_internal13ConvertIntArgIhEEbT_NS1_24FormatConversionSpecImplEPNS1_14FormatSinkImplE
libabsl_str_format_internal.so.2301.0.0:_ZN4absl12lts_2023012519str_format_internal13ConvertIntArgIiEEbT_NS1_24FormatConversionSpecImplEPNS1_14FormatSinkImplE
libabsl_str_format_internal.so.2301.0.0:_ZN4absl12lts_2023012519str_format_internal13ConvertIntArgIjEEbT_NS1_24FormatConversionSpecImplEPNS1_14FormatSinkImplE
libabsl_str_format_internal.so.2301.0.0:_ZN4absl12lts_2023012519str_format_internal13ConvertIntArgIlEEbT_NS1_24FormatConversionSpecImplEPNS1_14FormatSinkImplE
libabsl_str_format_internal.so.2301.0.0:_ZN4absl12lts_2023012519str_format_internal13ConvertIntArgImEEbT_NS1_24FormatConversionSpecImplEPNS1_14FormatSinkImplE
libabsl_str_format_internal.so.2301.0.0:_ZN4absl12lts_2023012519str_format_internal13ConvertIntArgIsEEbT_NS1_24FormatConversionSpecImplEPNS1_14FormatSinkImplE
libabsl_str_format_internal.so.2301.0.0:_ZN4absl12lts_2023012519str_format_internal13ConvertIntArgItEEbT_NS1_24FormatConversionSpecImplEPNS1_14FormatSinkImplE
libabsl_str_format_internal.so.2301.0.0:_ZN4absl12lts_2023012519str_format_internal13ConvertIntArgIxEEbT_NS1_24FormatConversionSpecImplEPNS1_14FormatSinkImplE
libabsl_str_format_internal.so.2301.0.0:_ZN4absl12lts_2023012519str_format_internal13ConvertIntArgIyEEbT_NS1_24FormatConversionSpecImplEPNS1_14FormatSinkImplE
libabsl_str_format_internal.so.2301.0.0:_ZN4absl12lts_2023012519str_format_internal13FlagsToStringB5cxx11ENS1_5FlagsE
libabsl_str_format_internal.so.2301.0.0:_ZN4absl12lts_2023012519str_format_internal13FormatArgImpl8DispatchINS0_6int128EEEbNS2_4DataENS1_24FormatConversionSpecImplEPv
libabsl_str_format_internal.so.2301.0.0:_ZN4absl12lts_2023012519str_format_internal13FormatArgImpl8DispatchINS0_7uint128EEEbNS2_4DataENS1_24FormatConversionSpecImplEPv
libabsl_str_format_internal.so.2301.0.0:_ZN4absl12lts_2023012519str_format_internal13FormatArgImpl8DispatchINS1_7VoidPtrEEEbNS2_4DataENS1_24FormatConversionSpecImplEPv
libabsl_str_format_internal.so.2301.0.0:_ZN4absl12lts_2023012519str_format_internal13FormatArgImpl8DispatchINSt7__cxx1112basic_stringIcSt11char_traitsIcESaIcEEEEEbNS2_4DataENS1_24FormatConversionSpecImplEPv
libabsl_str_format_internal.so.2301.0.0:_ZN4absl12lts_2023012519str_format_internal13FormatArgImpl8DispatchIPKcEEbNS2_4DataENS1_24FormatConversionSpecImplEPv
libabsl_str_format_internal.so.2301.0.0:_ZN4absl12lts_2023012519str_format_internal13FormatArgImpl8DispatchISt17basic_string_viewIcSt11char_traitsIcEEEEbNS2_4DataENS1_24FormatConversionSpecImplEPv
libabsl_str_format_internal.so.2301.0.0:_ZN4absl12lts_2023012519str_format_internal13FormatArgImpl8DispatchIaEEbNS2_4DataENS1_24FormatConversionSpecImplEPv
libabsl_str_format_internal.so.2301.0.0:_ZN4absl12lts_2023012519str_format_internal13FormatArgImpl8DispatchIbEEbNS2_4DataENS1_24FormatConversionSpecImplEPv
libabsl_str_format_internal.so.2301.0.0:_ZN4absl12lts_2023012519str_format_internal13FormatArgImpl8DispatchIcEEbNS2_4DataENS1_24FormatConversionSpecImplEPv
libabsl_str_format_internal.so.2301.0.0:_ZN4absl12lts_2023012519str_format_internal13FormatArgImpl8DispatchIdEEbNS2_4DataENS1_24FormatConversionSpecImplEPv
libabsl_str_format_internal.so.2301.0.0:_ZN4absl12lts_2023012519str_format_internal13FormatArgImpl8DispatchIeEEbNS2_4DataENS1_24FormatConversionSpecImplEPv
libabsl_str_format_internal.so.2301.0.0:_ZN4absl12lts_2023012519str_format_internal13FormatArgImpl8DispatchIfEEbNS2_4DataENS1_24FormatConversionSpecImplEPv
libabsl_str_format_internal.so.2301.0.0:_ZN4absl12lts_2023012519str_format_internal13FormatArgImpl8DispatchIhEEbNS2_4DataENS1_24FormatConversionSpecImplEPv
libabsl_str_format_internal.so.2301.0.0:_ZN4absl12lts_2023012519str_format_internal13FormatArgImpl8DispatchIiEEbNS2_4DataENS1_24FormatConversionSpecImplEPv
libabsl_str_format_internal.so.2301.0.0:_ZN4absl12lts_2023012519str_format_internal13FormatArgImpl8DispatchIjEEbNS2_4DataENS1_24FormatConversionSpecImplEPv
libabsl_str_format_internal.so.2301.0.0:_ZN4absl12lts_2023012519str_format_internal13FormatArgImpl8DispatchIlEEbNS2_4DataENS1_24FormatConversionSpecImplEPv
libabsl_str_format_internal.so.2301.0.0:_ZN4absl12lts_2023012519str_format_internal13FormatArgImpl8DispatchImEEbNS2_4DataENS1_24FormatConversionSpecImplEPv
libabsl_str_format_internal.so.2301.0.0:_ZN4absl12lts_2023012519str_format_internal13FormatArgImpl8DispatchIsEEbNS2_4DataENS1_24FormatConversionSpecImplEPv
libabsl_str_format_internal.so.2301.0.0:_ZN4absl12lts_2023012519str_format_internal13FormatArgImpl8DispatchItEEbNS2_4DataENS1_24FormatConversionSpecImplEPv
libabsl_str_format_internal.so.2301.0.0:_ZN4absl12lts_2023012519str_format_internal13FormatArgImpl8DispatchIxEEbNS2_4DataENS1_24FormatConversionSpecImplEPv
libabsl_str_format_internal.so.2301.0.0:_ZN4absl12lts_2023012519str_format_internal13FormatArgImpl8DispatchIyEEbNS2_4DataENS1_24FormatConversionSpecImplEPv
libabsl_str_format_internal.so.2301.0.0:_ZN4absl12lts_2023012519str_format_internal13FormatUntypedENS1_17FormatRawSinkImplENS1_21UntypedFormatSpecImplENS0_4SpanIKNS1_13FormatArgImplEEE
libabsl_str_format_internal.so.2301.0.0:_ZN4absl12lts_2023012519str_format_internal14ConvertBoolArgEbPNS1_14FormatSinkImplE
libabsl_str_format_internal.so.2301.0.0:_ZN4absl12lts_2023012519str_format_internal14FormatSinkImpl15PutPaddedStringESt17basic_string_viewIcSt11char_traitsIcEEiib
libabsl_str_format_internal.so.2301.0.0:_ZN4absl12lts_2023012519str_format_internal16ConvertFloatImplEdRKNS1_24FormatConversionSpecImplEPNS1_14FormatSinkImplE
libabsl_str_format_internal.so.2301.0.0:_ZN4absl12lts_2023012519str_format_internal16ConvertFloatImplEeRKNS1_24FormatConversionSpecImplEPNS1_14FormatSinkImplE
libabsl_str_format_internal.so.2301.0.0:_ZN4absl12lts_2023012519str_format_internal16ConvertFloatImplEfRKNS1_24FormatConversionSpecImplEPNS1_14FormatSinkImplE
libabsl_str_format_internal.so.2301.0.0:_ZN4absl12lts_2023012519str_format_internal16ParsedFormatBaseC1ESt17basic_string_viewIcSt11char_traitsIcEEbSt16initializer_listINS0_23FormatConversionCharSetEE
libabsl_str_format_internal.so.2301.0.0:_ZN4absl12lts_2023012519str_format_internal16ParsedFormatBaseC2ESt17basic_string_viewIcSt11char_traitsIcEEbSt16initializer_listINS0_23FormatConversionCharSetEE
libabsl_str_format_internal.so.2301.0.0:_ZN4absl12lts_2023012519str_format_internal17FormatConvertImplENS0_6int128ENS1_24FormatConversionSpecImplEPNS1_14FormatSinkImplE
libabsl_str_format_internal.so.2301.0.0:_ZN4absl12lts_2023012519str_format_internal17FormatConvertImplENS0_7uint128ENS1_24FormatConversionSpecImplEPNS1_14FormatSinkImplE
libabsl_str_format_internal.so.2301.0.0:_ZN4absl12lts_2023012519str_format_internal17FormatConvertImplENS1_7VoidPtrENS1_24FormatConversionSpecImplEPNS1_14FormatSinkImplE
libabsl_str_format_internal.so.2301.0.0:_ZN4absl12lts_2023012519str_format_internal17FormatConvertImplEPKcNS1_24FormatConversionSpecImplEPNS1_14FormatSinkImplE
libabsl_str_format_internal.so.2301.0.0:_ZN4absl12lts_2023012519str_format_internal17FormatConvertImplERKNSt7__cxx1112basic_stringIcSt11char_traitsIcESaIcEEENS1_24FormatConversionSpecImplEPNS1_14FormatSinkImplE
libabsl_str_format_internal.so.2301.0.0:_ZN4absl12lts_2023012519str_format_internal17FormatConvertImplESt17basic_string_viewIcSt11char_traitsIcEENS1_24FormatConversionSpecImplEPNS1_14FormatSinkImplE
libabsl_str_format_internal.so.2301.0.0:_ZN4absl12lts_2023012519str_format_internal17FormatConvertImplEaNS1_24FormatConversionSpecImplEPNS1_14FormatSinkImplE
libabsl_str_format_internal.so.2301.0.0:_ZN4absl12lts_2023012519str_format_internal17FormatConvertImplEcNS1_24FormatConversionSpecImplEPNS1_14FormatSinkImplE
libabsl_str_format_internal.so.2301.0.0:_ZN4absl12lts_2023012519str_format_internal17FormatConvertImplEdNS1_24FormatConversionSpecImplEPNS1_14FormatSinkImplE
libabsl_str_format_internal.so.2301.0.0:_ZN4absl12lts_2023012519str_format_internal17FormatConvertImplEeNS1_24FormatConversionSpecImplEPNS1_14FormatSinkImplE
libabsl_str_format_internal.so.2301.0.0:_ZN4absl12lts_2023012519str_format_internal17FormatConvertImplEfNS1_24FormatConversionSpecImplEPNS1_14FormatSinkImplE
libabsl_str_format_internal.so.2301.0.0:_ZN4absl12lts_2023012519str_format_internal17FormatConvertImplEhNS1_24FormatConversionSpecImplEPNS1_14FormatSinkImplE
libabsl_str_format_internal.so.2301.0.0:_ZN4absl12lts_2023012519str_format_internal17FormatConvertImplEiNS1_24FormatConversionSpecImplEPNS1_14FormatSinkImplE
libabsl_str_format_internal.so.2301.0.0:_ZN4absl12lts_2023012519str_format_internal17FormatConvertImplEjNS1_24FormatConversionSpecImplEPNS1_14FormatSinkImplE
libabsl_str_format_internal.so.2301.0.0:_ZN4absl12lts_2023012519str_format_internal17FormatConvertImplElNS1_24FormatConversionSpecImplEPNS1_14FormatSinkImplE
libabsl_str_format_internal.so.2301.0.0:_ZN4absl12lts_2023012519str_format_internal17FormatConvertImplEmNS1_24FormatConversionSpecImplEPNS1_14FormatSinkImplE
libabsl_str_format_internal.so.2301.0.0:_ZN4absl12lts_2023012519str_format_internal17FormatConvertImplEsNS1_24FormatConversionSpecImplEPNS1_14FormatSinkImplE
libabsl_str_format_internal.so.2301.0.0:_ZN4absl12lts_2023012519str_format_internal17FormatConvertImplEtNS1_24FormatConversionSpecImplEPNS1_14FormatSinkImplE
libabsl_str_format_internal.so.2301.0.0:_ZN4absl12lts_2023012519str_format_internal17FormatConvertImplExNS1_24FormatConversionSpecImplEPNS1_14FormatSinkImplE
libabsl_str_format_internal.so.2301.0.0:_ZN4absl12lts_2023012519str_format_internal17FormatConvertImplEyNS1_24FormatConversionSpecImplEPNS1_14FormatSinkImplE
libabsl_str_format_internal.so.2301.0.0:_ZN4absl12lts_2023012519str_format_internal17FormatRawSinkImpl5FlushINS1_11FILERawSinkEEEvPvSt17basic_string_viewIcSt11char_traitsIcEE
libabsl_str_format_internal.so.2301.0.0:_ZN4absl12lts_2023012519str_format_internal17FormatRawSinkImpl5FlushINS1_13BufferRawSinkEEEvPvSt17basic_string_viewIcSt11char_traitsIcEE
libabsl_str_format_internal.so.2301.0.0:_ZN4absl12lts_2023012519str_format_internal17FormatRawSinkImpl5FlushINSt7__cxx1112basic_stringIcSt11char_traitsIcESaIcEEEEEvPvSt17basic_string_viewIcS7_E
libabsl_str_format_internal.so.2301.0.0:_ZN4absl12lts_2023012519str_format_internal17FormatRawSinkImpl5FlushISoEEvPvSt17basic_string_viewIcSt11char_traitsIcEE
libabsl_str_format_internal.so.2301.0.0:_ZN4absl12lts_2023012519str_format_internal17LengthModToStringB5cxx11ENS1_9LengthModE
libabsl_str_format_internal.so.2301.0.0:_ZN4absl12lts_2023012519str_format_internal32ConsumeUnboundConversionNoInlineEPKcS3_PNS1_17UnboundConversionEPi
libabsl_str_format_internal.so.2301.0.0:_ZN4absl12lts_2023012519str_format_internal7FprintFEP8_IO_FILENS1_21UntypedFormatSpecImplENS0_4SpanIKNS1_13FormatArgImplEEE
libabsl_str_format_internal.so.2301.0.0:_ZN4absl12lts_2023012519str_format_internal8SnprintFEPcmNS1_21UntypedFormatSpecImplENS0_4SpanIKNS1_13FormatArgImplEEE
libabsl_str_format_internal.so.2301.0.0:_ZN4absl12lts_2023012519str_format_internal9SummarizeB5cxx11ENS1_21UntypedFormatSpecImplENS0_4SpanIKNS1_13FormatArgImplEEE
libabsl_str_format_internal.so.2301.0.0:_ZNK4absl12lts_2023012519str_format_internal10Streamable5PrintERSo
libabsl_str_format_internal.so.2301.0.0:_ZNK4absl12lts_2023012519str_format_internal16ParsedFormatBase18MatchesConversionsEbSt16initializer_listINS0_23FormatConversionCharSetEE
libabsl_strerror.so.2301.0.0:_ZN4absl12lts_2023012513base_internal8StrErrorB5cxx11Ei
libabsl_strings.so.2301.0.0:_ZN4absl12lts_2023012510CHexEscapeB5cxx11ESt17basic_string_viewIcSt11char_traitsIcEE
libabsl_strings.so.2301.0.0:_ZN4absl12lts_2023012510SimpleAtobESt17basic_string_viewIcSt11char_traitsIcEEPb
libabsl_strings.so.2301.0.0:_ZN4absl12lts_2023012510SimpleAtodESt17basic_string_viewIcSt11char_traitsIcEEPd
libabsl_strings.so.2301.0.0:_ZN4absl12lts_2023012510SimpleAtofESt17basic_string_viewIcSt11char_traitsIcEEPf
libabsl_strings.so.2301.0.0:_ZN4absl12lts_2023012510from_charsEPKcS2_RdNS0_12chars_formatE
libabsl_strings.so.2301.0.0:_ZN4absl12lts_2023012510from_charsEPKcS2_RfNS0_12chars_formatE
libabsl_strings.so.2301.0.0:_ZN4absl12lts_2023012512Base64EscapeB5cxx11ESt17basic_string_viewIcSt11char_traitsIcEE
libabsl_strings.so.2301.0.0:_ZN4absl12lts_2023012512Base64EscapeESt17basic_string_viewIcSt11char_traitsIcEEPNSt7__cxx1112basic_stringIcS3_SaIcEEE
libabsl_strings.so.2301.0.0:_ZN4absl12lts_2023012513StrReplaceAllB5cxx11ESt17basic_string_viewIcSt11char_traitsIcEESt16initializer_listISt4pairIS4_S4_EE
libabsl_strings.so.2301.0.0:_ZN4absl12lts_2023012513StrReplaceAllESt16initializer_listISt4pairISt17basic_string_viewIcSt11char_traitsIcEES6_EEPNSt7__cxx1112basic_stringIcS5_SaIcEEE
libabsl_strings.so.2301.0.0:_ZN4absl12lts_2023012513ascii_isdigitEh
libabsl_strings.so.2301.0.0:_ZN4absl12lts_2023012513ascii_isspaceEh
libabsl_strings.so.2301.0.0:_ZN4absl12lts_2023012514Base64UnescapeESt17basic_string_viewIcSt11char_traitsIcEEPNSt7__cxx1112basic_stringIcS3_SaIcEEE
libabsl_strings.so.2301.0.0:_ZN4absl12lts_2023012515AsciiStrToLowerEPNSt7__cxx1112basic_stringIcSt11char_traitsIcESaIcEEE
libabsl_strings.so.2301.0.0:_ZN4absl12lts_2023012515AsciiStrToUpperEPNSt7__cxx1112basic_stringIcSt11char_traitsIcESaIcEEE
libabsl_strings.so.2301.0.0:_ZN4absl12lts_2023012515Utf8SafeCEscapeB5cxx11ESt17basic_string_viewIcSt11char_traitsIcEE
libabsl_strings.so.2301.0.0:_ZN4absl12lts_2023012516BytesToHexStringB5cxx11ESt17basic_string_viewIcSt11char_traitsIcEE
libabsl_strings.so.2301.0.0:_ZN4absl12lts_2023012516EqualsIgnoreCaseESt17basic_string_viewIcSt11char_traitsIcEES4_
libabsl_strings.so.2301.0.0:_ZN4absl12lts_2023012516HexStringToBytesB5cxx11ESt17basic_string_viewIcSt11char_traitsIcEE
libabsl_strings.so.2301.0.0:_ZN4absl12lts_2023012516numbers_internal15FastIntToBufferEiPc
libabsl_strings.so.2301.0.0:_ZN4absl12lts_2023012516numbers_internal15FastIntToBufferEjPc
libabsl_strings.so.2301.0.0:_ZN4absl12lts_2023012516numbers_internal15FastIntToBufferElPc
libabsl_strings.so.2301.0.0:_ZN4absl12lts_2023012516numbers_internal15FastIntToBufferEmPc
libabsl_strings.so.2301.0.0:_ZN4absl12lts_2023012516numbers_internal17SixDigitsToBufferEdPc
libabsl_strings.so.2301.0.0:_ZN4absl12lts_2023012516numbers_internal17safe_strto32_baseESt17basic_string_viewIcSt11char_traitsIcEEPii
libabsl_strings.so.2301.0.0:_ZN4absl12lts_2023012516numbers_internal17safe_strto64_baseESt17basic_string_viewIcSt11char_traitsIcEEPli
libabsl_strings.so.2301.0.0:_ZN4absl12lts_2023012516numbers_internal18safe_strto128_baseESt17basic_string_viewIcSt11char_traitsIcEEPNS0_6int128Ei
libabsl_strings.so.2301.0.0:_ZN4absl12lts_2023012516numbers_internal18safe_strtou32_baseESt17basic_string_viewIcSt11char_traitsIcEEPji
libabsl_strings.so.2301.0.0:_ZN4absl12lts_2023012516numbers_internal18safe_strtou64_baseESt17basic_string_viewIcSt11char_traitsIcEEPmi
libabsl_strings.so.2301.0.0:_ZN4absl12lts_2023012516numbers_internal19safe_strtou128_baseESt17basic_string_viewIcSt11char_traitsIcEEPNS0_7uint128Ei
libabsl_strings.so.2301.0.0:_ZN4absl12lts_2023012516strings_internal10ParseFloatILi10EEENS1_11ParsedFloatEPKcS5_NS0_12chars_formatE
libabsl_strings.so.2301.0.0:_ZN4absl12lts_2023012516strings_internal10ParseFloatILi16EEENS1_11ParsedFloatEPKcS5_NS0_12chars_formatE
libabsl_strings.so.2301.0.0:_ZN4absl12lts_2023012516strings_internal10memcasecmpEPKcS3_m
libabsl_strings.so.2301.0.0:_ZN4absl12lts_2023012516strings_internal11BigUnsignedILi4EE10MultiplyByEiPKj
libabsl_strings.so.2301.0.0:_ZN4absl12lts_2023012516strings_internal11BigUnsignedILi4EE10MultiplyByEj
libabsl_strings.so.2301.0.0:_ZN4absl12lts_2023012516strings_internal11BigUnsignedILi4EE10MultiplyByEm
libabsl_strings.so.2301.0.0:_ZN4absl12lts_2023012516strings_internal11BigUnsignedILi4EE10ReadDigitsEPKcS5_i
libabsl_strings.so.2301.0.0:_ZN4absl12lts_2023012516strings_internal11BigUnsignedILi4EE12AddWithCarryEij
libabsl_strings.so.2301.0.0:_ZN4absl12lts_2023012516strings_internal11BigUnsignedILi4EE12AddWithCarryEim
libabsl_strings.so.2301.0.0:_ZN4absl12lts_2023012516strings_internal11BigUnsignedILi4EE12FiveToTheNthEi
libabsl_strings.so.2301.0.0:_ZN4absl12lts_2023012516strings_internal11BigUnsignedILi4EE12MultiplyStepEiPKjii
libabsl_strings.so.2301.0.0:_ZN4absl12lts_2023012516strings_internal11BigUnsignedILi4EE17ReadFloatMantissaERKNS1_11ParsedFloatEi
libabsl_strings.so.2301.0.0:_ZN4absl12lts_2023012516strings_internal11BigUnsignedILi4EE21MultiplyByTenToTheNthEi
libabsl_strings.so.2301.0.0:_ZN4absl12lts_2023012516strings_internal11BigUnsignedILi4EE22MultiplyByFiveToTheNthEi
libabsl_strings.so.2301.0.0:_ZN4absl12lts_2023012516strings_internal11BigUnsignedILi4EE8Digits10Ev
libabsl_strings.so.2301.0.0:_ZN4absl12lts_2023012516strings_internal11BigUnsignedILi4EE9SetToZeroEv
libabsl_strings.so.2301.0.0:_ZN4absl12lts_2023012516strings_internal11BigUnsignedILi4EE9ShiftLeftEi
libabsl_strings.so.2301.0.0:_ZN4absl12lts_2023012516strings_internal11BigUnsignedILi4EEC1ESt17basic_string_viewIcSt11char_traitsIcEE
libabsl_strings.so.2301.0.0:_ZN4absl12lts_2023012516strings_internal11BigUnsignedILi4EEC1Em
libabsl_strings.so.2301.0.0:_ZN4absl12lts_2023012516strings_internal11BigUnsignedILi4EEC1Ev
libabsl_strings.so.2301.0.0:_ZN4absl12lts_2023012516strings_internal11BigUnsignedILi4EEC2ESt17basic_string_viewIcSt11char_traitsIcEE
libabsl_strings.so.2301.0.0:_ZN4absl12lts_2023012516strings_internal11BigUnsignedILi4EEC2Em
libabsl_strings.so.2301.0.0:_ZN4absl12lts_2023012516strings_internal11BigUnsignedILi4EEC2Ev
libabsl_strings.so.2301.0.0:_ZN4absl12lts_2023012516strings_internal11BigUnsignedILi84EE10MultiplyByEiPKj
libabsl_strings.so.2301.0.0:_ZN4absl12lts_2023012516strings_internal11BigUnsignedILi84EE10MultiplyByEj
libabsl_strings.so.2301.0.0:_ZN4absl12lts_2023012516strings_internal11BigUnsignedILi84EE10MultiplyByEm
libabsl_strings.so.2301.0.0:_ZN4absl12lts_2023012516strings_internal11BigUnsignedILi84EE10ReadDigitsEPKcS5_i
libabsl_strings.so.2301.0.0:_ZN4absl12lts_2023012516strings_internal11BigUnsignedILi84EE12AddWithCarryEij
libabsl_strings.so.2301.0.0:_ZN4absl12lts_2023012516strings_internal11BigUnsignedILi84EE12AddWithCarryEim
libabsl_strings.so.2301.0.0:_ZN4absl12lts_2023012516strings_internal11BigUnsignedILi84EE12FiveToTheNthEi
libabsl_strings.so.2301.0.0:_ZN4absl12lts_2023012516strings_internal11BigUnsignedILi84EE12MultiplyStepEiPKjii
libabsl_strings.so.2301.0.0:_ZN4absl12lts_2023012516strings_internal11BigUnsignedILi84EE17ReadFloatMantissaERKNS1_11ParsedFloatEi
libabsl_strings.so.2301.0.0:_ZN4absl12lts_2023012516strings_internal11BigUnsignedILi84EE21MultiplyByTenToTheNthEi
libabsl_strings.so.2301.0.0:_ZN4absl12lts_2023012516strings_internal11BigUnsignedILi84EE22MultiplyByFiveToTheNthEi
libabsl_strings.so.2301.0.0:_ZN4absl12lts_2023012516strings_internal11BigUnsignedILi84EE8Digits10Ev
libabsl_strings.so.2301.0.0:_ZN4absl12lts_2023012516strings_internal11BigUnsignedILi84EE9SetToZeroEv
libabsl_strings.so.2301.0.0:_ZN4absl12lts_2023012516strings_internal11BigUnsignedILi84EE9ShiftLeftEi
libabsl_strings.so.2301.0.0:_ZN4absl12lts_2023012516strings_internal11BigUnsignedILi84EEC1ESt17basic_string_viewIcSt11char_traitsIcEE
libabsl_strings.so.2301.0.0:_ZN4absl12lts_2023012516strings_internal11BigUnsignedILi84EEC1Em
libabsl_strings.so.2301.0.0:_ZN4absl12lts_2023012516strings_internal11BigUnsignedILi84EEC1Ev
libabsl_strings.so.2301.0.0:_ZN4absl12lts_2023012516strings_internal11BigUnsignedILi84EEC2ESt17basic_string_viewIcSt11char_traitsIcEE
libabsl_strings.so.2301.0.0:_ZN4absl12lts_2023012516strings_internal11BigUnsignedILi84EEC2Em
libabsl_strings.so.2301.0.0:_ZN4absl12lts_2023012516strings_internal11BigUnsignedILi84EEC2Ev
libabsl_strings.so.2301.0.0:_ZN4absl12lts_2023012516strings_internal12AppendPiecesEPNSt7__cxx1112basic_stringIcSt11char_traitsIcESaIcEEESt16initializer_listISt17basic_string_viewIcS5_EE
libabsl_strings.so.2301.0.0:_ZN4absl12lts_2023012516strings_internal13StringifySink6AppendESt17basic_string_viewIcSt11char_traitsIcEE
libabsl_strings.so.2301.0.0:_ZN4absl12lts_2023012516strings_internal13StringifySink6AppendEmc
libabsl_strings.so.2301.0.0:_ZN4absl12lts_2023012516strings_internal18ApplySubstitutionsESt17basic_string_viewIcSt11char_traitsIcEEPSt6vectorINS1_18ViableSubstitutionESaIS7_EEPNSt7__cxx1112basic_stringIcS4_SaIcEEE
libabsl_strings.so.2301.0.0:_ZN4absl12lts_2023012516strings_internal32CappedDamerauLevenshteinDistanceESt17basic_string_viewIcSt11char_traitsIcEES5_h
libabsl_strings.so.2301.0.0:_ZN4absl12lts_2023012516strings_internal6memdupEPKcm
libabsl_strings.so.2301.0.0:_ZN4absl12lts_2023012516strings_internal6memspnEPKcmS3_
libabsl_strings.so.2301.0.0:_ZN4absl12lts_2023012516strings_internal7memcspnEPKcmS3_
libabsl_strings.so.2301.0.0:_ZN4absl12lts_2023012516strings_internal7mempbrkEPKcmS3_
libabsl_strings.so.2301.0.0:_ZN4absl12lts_2023012516strings_internal7memrchrEPKcim
libabsl_strings.so.2301.0.0:_ZN4absl12lts_2023012516strings_internal8memmatchEPKcmS3_m
libabsl_strings.so.2301.0.0:_ZN4absl12lts_2023012516strings_internal9CatPiecesB5cxx11ESt16initializer_listISt17basic_string_viewIcSt11char_traitsIcEEE
libabsl_strings.so.2301.0.0:_ZN4absl12lts_2023012518EndsWithIgnoreCaseESt17basic_string_viewIcSt11char_traitsIcEES4_
libabsl_strings.so.2301.0.0:_ZN4absl12lts_2023012518Utf8SafeCHexEscapeB5cxx11ESt17basic_string_viewIcSt11char_traitsIcEE
libabsl_strings.so.2301.0.0:_ZN4absl12lts_2023012519WebSafeBase64EscapeB5cxx11ESt17basic_string_viewIcSt11char_traitsIcEE
libabsl_strings.so.2301.0.0:_ZN4absl12lts_2023012519WebSafeBase64EscapeESt17basic_string_viewIcSt11char_traitsIcEEPNSt7__cxx1112basic_stringIcS3_SaIcEEE
libabsl_strings.so.2301.0.0:_ZN4absl12lts_2023012519substitute_internal24SubstituteAndAppendArrayEPNSt7__cxx1112basic_stringIcSt11char_traitsIcESaIcEEESt17basic_string_viewIcS5_EPKSA_m
libabsl_strings.so.2301.0.0:_ZN4absl12lts_2023012519substitute_internal3ArgC1ENS0_3DecE
libabsl_strings.so.2301.0.0:_ZN4absl12lts_2023012519substitute_internal3ArgC1ENS0_3HexE
libabsl_strings.so.2301.0.0:_ZN4absl12lts_2023012519substitute_internal3ArgC1EPKv
libabsl_strings.so.2301.0.0:_ZN4absl12lts_2023012519substitute_internal3ArgC2ENS0_3DecE
libabsl_strings.so.2301.0.0:_ZN4absl12lts_2023012519substitute_internal3ArgC2ENS0_3HexE
libabsl_strings.so.2301.0.0:_ZN4absl12lts_2023012519substitute_internal3ArgC2EPKv
libabsl_strings.so.2301.0.0:_ZN4absl12lts_2023012520StartsWithIgnoreCaseESt17basic_string_viewIcSt11char_traitsIcEES4_
libabsl_strings.so.2301.0.0:_ZN4absl12lts_2023012521WebSafeBase64UnescapeESt17basic_string_viewIcSt11char_traitsIcEEPNSt7__cxx1112basic_stringIcS3_SaIcEEE
libabsl_strings.so.2301.0.0:_ZN4absl12lts_2023012526RemoveExtraAsciiWhitespaceEPNSt7__cxx1112basic_stringIcSt11char_traitsIcESaIcEEE
libabsl_strings.so.2301.0.0:_ZN4absl12lts_202301256StrCatB5cxx11ERKNS0_8AlphaNumES3_
libabsl_strings.so.2301.0.0:_ZN4absl12lts_202301256StrCatB5cxx11ERKNS0_8AlphaNumES3_S3_
libabsl_strings.so.2301.0.0:_ZN4absl12lts_202301256StrCatB5cxx11ERKNS0_8AlphaNumES3_S3_S3_
libabsl_strings.so.2301.0.0:_ZN4absl12lts_202301257CEscapeB5cxx11ESt17basic_string_viewIcSt11char_traitsIcEE
libabsl_strings.so.2301.0.0:_ZN4absl12lts_202301258AlphaNumC1ENS0_3DecE
libabsl_strings.so.2301.0.0:_ZN4absl12lts_202301258AlphaNumC1ENS0_3HexE
libabsl_strings.so.2301.0.0:_ZN4absl12lts_202301258AlphaNumC2ENS0_3DecE
libabsl_strings.so.2301.0.0:_ZN4absl12lts_202301258AlphaNumC2ENS0_3HexE
libabsl_strings.so.2301.0.0:_ZN4absl12lts_202301258ByLengthC1El
libabsl_strings.so.2301.0.0:_ZN4absl12lts_202301258ByLengthC2El
libabsl_strings.so.2301.0.0:_ZN4absl12lts_202301258ByStringC1ESt17basic_string_viewIcSt11char_traitsIcEE
libabsl_strings.so.2301.0.0:_ZN4absl12lts_202301258ByStringC2ESt17basic_string_viewIcSt11char_traitsIcEE
libabsl_strings.so.2301.0.0:_ZN4absl12lts_202301259ByAnyCharC1ESt17basic_string_viewIcSt11char_traitsIcEE
libabsl_strings.so.2301.0.0:_ZN4absl12lts_202301259ByAnyCharC2ESt17basic_string_viewIcSt11char_traitsIcEE
libabsl_strings.so.2301.0.0:_ZN4absl12lts_202301259CUnescapeESt17basic_string_viewIcSt11char_traitsIcEEPNSt7__cxx1112basic_stringIcS3_SaIcEEES9_
libabsl_strings.so.2301.0.0:_ZN4absl12lts_202301259StrAppendEPNSt7__cxx1112basic_stringIcSt11char_traitsIcESaIcEEERKNS0_8AlphaNumE
libabsl_strings.so.2301.0.0:_ZN4absl12lts_202301259StrAppendEPNSt7__cxx1112basic_stringIcSt11char_traitsIcESaIcEEERKNS0_8AlphaNumESA_
libabsl_strings.so.2301.0.0:_ZN4absl12lts_202301259StrAppendEPNSt7__cxx1112basic_stringIcSt11char_traitsIcESaIcEEERKNS0_8AlphaNumESA_SA_
libabsl_strings.so.2301.0.0:_ZN4absl12lts_202301259StrAppendEPNSt7__cxx1112basic_stringIcSt11char_traitsIcESaIcEEERKNS0_8AlphaNumESA_SA_SA_
libabsl_strings.so.2301.0.0:_ZNK4absl12lts_2023012516strings_internal11BigUnsignedILi4EE4sizeEv
libabsl_strings.so.2301.0.0:_ZNK4absl12lts_2023012516strings_internal11BigUnsignedILi4EE5wordsEv
libabsl_strings.so.2301.0.0:_ZNK4absl12lts_2023012516strings_internal11BigUnsignedILi4EE7GetWordEi
libabsl_strings.so.2301.0.0:_ZNK4absl12lts_2023012516strings_internal11BigUnsignedILi4EE8ToStringB5cxx11Ev
libabsl_strings.so.2301.0.0:_ZNK4absl12lts_2023012516strings_internal11BigUnsignedILi84EE4sizeEv
libabsl_strings.so.2301.0.0:_ZNK4absl12lts_2023012516strings_internal11BigUnsignedILi84EE5wordsEv
libabsl_strings.so.2301.0.0:_ZNK4absl12lts_2023012516strings_internal11BigUnsignedILi84EE7GetWordEi
libabsl_strings.so.2301.0.0:_ZNK4absl12lts_2023012516strings_internal11BigUnsignedILi84EE8ToStringB5cxx11Ev
libabsl_strings.so.2301.0.0:_ZNK4absl12lts_202301256ByChar4FindESt17basic_string_viewIcSt11char_traitsIcEEm
libabsl_strings.so.2301.0.0:_ZNK4absl12lts_202301258ByLength4FindESt17basic_string_viewIcSt11char_traitsIcEEm
libabsl_strings.so.2301.0.0:_ZNK4absl12lts_202301258ByString4FindESt17basic_string_viewIcSt11char_traitsIcEEm
libabsl_strings.so.2301.0.0:_ZNK4absl12lts_202301259ByAnyChar4FindESt17basic_string_viewIcSt11char_traitsIcEEm
libabsl_strings_internal.so.2301.0.0:_ZN4absl12lts_2023012516strings_internal13OStringStream9Streambuf6xsputnEPKcl
libabsl_strings_internal.so.2301.0.0:_ZN4absl12lts_2023012516strings_internal13OStringStream9Streambuf8overflowEi
libabsl_strings_internal.so.2301.0.0:_ZN4absl12lts_2023012516strings_internal14EncodeUTF8CharEPcDi
libabsl_strings_internal.so.2301.0.0:_ZN4absl12lts_2023012516strings_internal20Base64EscapeInternalEPKhmPcmPKcb
libabsl_strings_internal.so.2301.0.0:_ZN4absl12lts_2023012516strings_internal33CalculateBase64EscapedLenInternalEmb
libabsl_symbolize.so.2301.0.0:AbslInternalGetFileMappingHint
libabsl_symbolize.so.2301.0.0:_ZN4absl12lts_2023012518debugging_internal14ForEachSectionEiRKSt8functionIFbSt17basic_string_viewIcSt11char_traitsIcEERK10Elf64_ShdrEE
libabsl_symbolize.so.2301.0.0:_ZN4absl12lts_2023012518debugging_internal18GetFileMappingHintEPPKvS4_PmPPKc
libabsl_symbolize.so.2301.0.0:_ZN4absl12lts_2023012518debugging_internal21RemoveSymbolDecoratorEi
libabsl_symbolize.so.2301.0.0:_ZN4absl12lts_2023012518debugging_internal22GetSectionHeaderByNameEiPKcmP10Elf64_Shdr
libabsl_symbolize.so.2301.0.0:_ZN4absl12lts_2023012518debugging_internal22InstallSymbolDecoratorEPFvPKNS1_19SymbolDecoratorArgsEEPv
libabsl_symbolize.so.2301.0.0:_ZN4absl12lts_2023012518debugging_internal23RegisterFileMappingHintEPKvS3_mPKc
libabsl_symbolize.so.2301.0.0:_ZN4absl12lts_2023012518debugging_internal25RemoveAllSymbolDecoratorsEv
libabsl_symbolize.so.2301.0.0:_ZN4absl12lts_2023012520InitializeSymbolizerEPKc
libabsl_symbolize.so.2301.0.0:_ZN4absl12lts_202301259SymbolizeEPKvPci
libabsl_synchronization.so.2301.0.0:AbslInternalMutexYield_lts_20230125
libabsl_synchronization.so.2301.0.0:AbslInternalPerThreadSemPost_lts_20230125
libabsl_synchronization.so.2301.0.0:AbslInternalPerThreadSemWait_lts_20230125
libabsl_synchronization.so.2301.0.0:_ZN4absl12lts_2023012512Notification23HasBeenNotifiedInternalEPKSt6atomicIbE
libabsl_synchronization.so.2301.0.0:_ZN4absl12lts_2023012512Notification6NotifyEv
libabsl_synchronization.so.2301.0.0:_ZN4absl12lts_2023012512NotificationD1Ev
libabsl_synchronization.so.2301.0.0:_ZN4absl12lts_2023012512NotificationD2Ev
libabsl_synchronization.so.2301.0.0:_ZN4absl12lts_2023012513base_internal10AtomicHookIPFvPKcPKvEE13DummyFunctionES4_S6_
libabsl_synchronization.so.2301.0.0:_ZN4absl12lts_2023012513base_internal10AtomicHookIPFvPKcPKvlEE13DummyFunctionES4_S6_l
libabsl_synchronization.so.2301.0.0:_ZN4absl12lts_2023012513base_internal10AtomicHookIPFvlEE13DummyFunctionEl
libabsl_synchronization.so.2301.0.0:_ZN4absl12lts_2023012515BlockingCounter14DecrementCountEv
libabsl_synchronization.so.2301.0.0:_ZN4absl12lts_2023012515BlockingCounter4WaitEv
libabsl_synchronization.so.2301.0.0:_ZN4absl12lts_2023012515BlockingCounterC1Ei
libabsl_synchronization.so.2301.0.0:_ZN4absl12lts_2023012515BlockingCounterC2Ei
libabsl_synchronization.so.2301.0.0:_ZN4absl12lts_2023012518RegisterSymbolizerEPFbPKvPciE
libabsl_synchronization.so.2301.0.0:_ZN4absl12lts_2023012519RegisterMutexTracerEPFvPKcPKvlE
libabsl_synchronization.so.2301.0.0:_ZN4absl12lts_2023012519ReleasableMutexLock7ReleaseEv
libabsl_synchronization.so.2301.0.0:_ZN4absl12lts_2023012521RegisterCondVarTracerEPFvPKcPKvE
libabsl_synchronization.so.2301.0.0:_ZN4absl12lts_2023012521RegisterMutexProfilerEPFvlE
libabsl_synchronization.so.2301.0.0:_ZN4absl12lts_2023012524synchronization_internal10MutexDelayEii
libabsl_synchronization.so.2301.0.0:_ZN4absl12lts_2023012524synchronization_internal12PerThreadSem23GetThreadBlockedCounterEv
libabsl_synchronization.so.2301.0.0:_ZN4absl12lts_2023012524synchronization_internal12PerThreadSem23SetThreadBlockedCounterEPSt6atomicIiE
libabsl_synchronization.so.2301.0.0:_ZN4absl12lts_2023012524synchronization_internal12PerThreadSem4InitEPNS0_13base_internal14ThreadIdentityE
libabsl_synchronization.so.2301.0.0:_ZN4absl12lts_2023012524synchronization_internal12PerThreadSem4TickEPNS0_13base_internal14ThreadIdentityE
libabsl_synchronization.so.2301.0.0:_ZN4absl12lts_2023012524synchronization_internal20CreateThreadIdentityEv
libabsl_synchronization.so.2301.0.0:_ZN4absl12lts_2023012524synchronization_internal25OneTimeInitThreadIdentityEPNS0_13base_internal14ThreadIdentityE
libabsl_synchronization.so.2301.0.0:_ZN4absl12lts_2023012524synchronization_internal6Waiter4PokeEv
libabsl_synchronization.so.2301.0.0:_ZN4absl12lts_2023012524synchronization_internal6Waiter4PostEv
libabsl_synchronization.so.2301.0.0:_ZN4absl12lts_2023012524synchronization_internal6Waiter4WaitENS1_13KernelTimeoutE
libabsl_synchronization.so.2301.0.0:_ZN4absl12lts_2023012524synchronization_internal6WaiterC1Ev
libabsl_synchronization.so.2301.0.0:_ZN4absl12lts_2023012524synchronization_internal6WaiterC2Ev
libabsl_synchronization.so.2301.0.0:_ZN4absl12lts_2023012529EnableMutexInvariantDebuggingEb
libabsl_synchronization.so.2301.0.0:_ZN4absl12lts_2023012529SetMutexDeadlockDetectionModeENS0_15OnDeadlockCycleE
libabsl_synchronization.so.2301.0.0:_ZN4absl12lts_202301255Mutex10ReaderLockEv
libabsl_synchronization.so.2301.0.0:_ZN4absl12lts_202301255Mutex10UnlockSlowEPNS0_15SynchWaitParamsE
libabsl_synchronization.so.2301.0.0:_ZN4absl12lts_202301255Mutex11AwaitCommonERKNS0_9ConditionENS0_24synchronization_internal13KernelTimeoutE
libabsl_synchronization.so.2301.0.0:_ZN4absl12lts_202301255Mutex12LockSlowLoopEPNS0_15SynchWaitParamsEi
libabsl_synchronization.so.2301.0.0:_ZN4absl12lts_202301255Mutex12ReaderUnlockEv
libabsl_synchronization.so.2301.0.0:_ZN4absl12lts_202301255Mutex13ReaderTryLockEv
libabsl_synchronization.so.2301.0.0:_ZN4absl12lts_202301255Mutex14EnableDebugLogEPKc
libabsl_synchronization.so.2301.0.0:_ZN4absl12lts_202301255Mutex14ReaderLockWhenERKNS0_9ConditionE
libabsl_synchronization.so.2301.0.0:_ZN4absl12lts_202301255Mutex16AwaitWithTimeoutERKNS0_9ConditionENS0_8DurationE
libabsl_synchronization.so.2301.0.0:_ZN4absl12lts_202301255Mutex17AwaitWithDeadlineERKNS0_9ConditionENS0_4TimeE
libabsl_synchronization.so.2301.0.0:_ZN4absl12lts_202301255Mutex17DecrementSynchSemEPS1_PNS0_13base_internal14PerThreadSynchENS0_24synchronization_internal13KernelTimeoutE
libabsl_synchronization.so.2301.0.0:_ZN4absl12lts_202301255Mutex17IncrementSynchSemEPS1_PNS0_13base_internal14PerThreadSynchE
libabsl_synchronization.so.2301.0.0:_ZN4absl12lts_202301255Mutex18ForgetDeadlockInfoEv
libabsl_synchronization.so.2301.0.0:_ZN4absl12lts_202301255Mutex19LockWhenWithTimeoutERKNS0_9ConditionENS0_8DurationE
libabsl_synchronization.so.2301.0.0:_ZN4absl12lts_202301255Mutex20LockSlowWithDeadlineEPKNS0_6MuHowSEPKNS0_9ConditionENS0_24synchronization_internal13KernelTimeoutEi
libabsl_synchronization.so.2301.0.0:_ZN4absl12lts_202301255Mutex20LockWhenWithDeadlineERKNS0_9ConditionENS0_4TimeE
libabsl_synchronization.so.2301.0.0:_ZN4absl12lts_202301255Mutex24EnableInvariantDebuggingEPFvPvES2_
libabsl_synchronization.so.2301.0.0:_ZN4absl12lts_202301255Mutex25ReaderLockWhenWithTimeoutERKNS0_9ConditionENS0_8DurationE
libabsl_synchronization.so.2301.0.0:_ZN4absl12lts_202301255Mutex26ReaderLockWhenWithDeadlineERKNS0_9ConditionENS0_4TimeE
libabsl_synchronization.so.2301.0.0:_ZN4absl12lts_202301255Mutex3FerEPNS0_13base_internal14PerThreadSynchE
libabsl_synchronization.so.2301.0.0:_ZN4absl12lts_202301255Mutex45InternalAttemptToUseMutexInFatalSignalHandlerEv
libabsl_synchronization.so.2301.0.0:_ZN4absl12lts_202301255Mutex4LockEv
libabsl_synchronization.so.2301.0.0:_ZN4absl12lts_202301255Mutex5AwaitERKNS0_9ConditionE
libabsl_synchronization.so.2301.0.0:_ZN4absl12lts_202301255Mutex5BlockEPNS0_13base_internal14PerThreadSynchE
libabsl_synchronization.so.2301.0.0:_ZN4absl12lts_202301255Mutex5TransEPKNS0_6MuHowSE
libabsl_synchronization.so.2301.0.0:_ZN4absl12lts_202301255Mutex6UnlockEv
libabsl_synchronization.so.2301.0.0:_ZN4absl12lts_202301255Mutex6WakeupEPNS0_13base_internal14PerThreadSynchE
libabsl_synchronization.so.2301.0.0:_ZN4absl12lts_202301255Mutex7TryLockEv
libabsl_synchronization.so.2301.0.0:_ZN4absl12lts_202301255Mutex8LockSlowEPKNS0_6MuHowSEPKNS0_9ConditionEi
libabsl_synchronization.so.2301.0.0:_ZN4absl12lts_202301255Mutex8LockWhenERKNS0_9ConditionE
libabsl_synchronization.so.2301.0.0:_ZN4absl12lts_202301255Mutex9TryRemoveEPNS0_13base_internal14PerThreadSynchE
libabsl_synchronization.so.2301.0.0:_ZN4absl12lts_202301255MutexD1Ev
libabsl_synchronization.so.2301.0.0:_ZN4absl12lts_202301255MutexD2Ev
libabsl_synchronization.so.2301.0.0:_ZN4absl12lts_202301257Barrier5BlockEv
libabsl_synchronization.so.2301.0.0:_ZN4absl12lts_202301257CondVar10WaitCommonEPNS0_5MutexENS0_24synchronization_internal13KernelTimeoutE
libabsl_synchronization.so.2301.0.0:_ZN4absl12lts_202301257CondVar14EnableDebugLogEPKc
libabsl_synchronization.so.2301.0.0:_ZN4absl12lts_202301257CondVar15WaitWithTimeoutEPNS0_5MutexENS0_8DurationE
libabsl_synchronization.so.2301.0.0:_ZN4absl12lts_202301257CondVar16WaitWithDeadlineEPNS0_5MutexENS0_4TimeE
libabsl_synchronization.so.2301.0.0:_ZN4absl12lts_202301257CondVar4WaitEPNS0_5MutexE
libabsl_synchronization.so.2301.0.0:_ZN4absl12lts_202301257CondVar6RemoveEPNS0_13base_internal14PerThreadSynchE
libabsl_synchronization.so.2301.0.0:_ZN4absl12lts_202301257CondVar6SignalEv
libabsl_synchronization.so.2301.0.0:_ZN4absl12lts_202301257CondVar6WakeupEPNS0_13base_internal14PerThreadSynchE
libabsl_synchronization.so.2301.0.0:_ZN4absl12lts_202301257CondVar9SignalAllEv
libabsl_synchronization.so.2301.0.0:_ZN4absl12lts_202301257CondVarD1Ev
libabsl_synchronization.so.2301.0.0:_ZN4absl12lts_202301257CondVarD2Ev
libabsl_synchronization.so.2301.0.0:_ZN4absl12lts_202301259Condition15GuaranteedEqualEPKS1_S3_
libabsl_synchronization.so.2301.0.0:_ZN4absl12lts_202301259Condition19CallVoidPtrFunctionEPKS1_
libabsl_synchronization.so.2301.0.0:_ZN4absl12lts_202301259Condition19CastAndCallFunctionIKSt6atomicIbEEEbPKS1_
libabsl_synchronization.so.2301.0.0:_ZN4absl12lts_202301259Condition19CastAndCallFunctionINS0_10SynchEventEEEbPKS1_
libabsl_synchronization.so.2301.0.0:_ZN4absl12lts_202301259ConditionC1EPFbPvES2_
libabsl_synchronization.so.2301.0.0:_ZN4absl12lts_202301259ConditionC1EPKb
libabsl_synchronization.so.2301.0.0:_ZN4absl12lts_202301259ConditionC2EPFbPvES2_
libabsl_synchronization.so.2301.0.0:_ZN4absl12lts_202301259ConditionC2EPKb
libabsl_synchronization.so.2301.0.0:_ZNK4absl12lts_2023012512Notification19WaitForNotificationEv
libabsl_synchronization.so.2301.0.0:_ZNK4absl12lts_2023012512Notification30WaitForNotificationWithTimeoutENS0_8DurationE
libabsl_synchronization.so.2301.0.0:_ZNK4absl12lts_2023012512Notification31WaitForNotificationWithDeadlineENS0_4TimeE
libabsl_synchronization.so.2301.0.0:_ZNK4absl12lts_202301255Mutex10AssertHeldEv
libabsl_synchronization.so.2301.0.0:_ZNK4absl12lts_202301255Mutex13AssertNotHeldEv
libabsl_synchronization.so.2301.0.0:_ZNK4absl12lts_202301255Mutex16AssertReaderHeldEv
libabsl_synchronization.so.2301.0.0:_ZNK4absl12lts_202301259Condition4EvalEv
libabsl_throw_delegate.so.2301.0.0:_ZN4absl12lts_2023012513base_internal16ThrowStdBadAllocEv
libabsl_throw_delegate.so.2301.0.0:_ZN4absl12lts_2023012513base_internal18ThrowStdLogicErrorEPKc
libabsl_throw_delegate.so.2301.0.0:_ZN4absl12lts_2023012513base_internal18ThrowStdLogicErrorERKNSt7__cxx1112basic_stringIcSt11char_traitsIcESaIcEEE
libabsl_throw_delegate.so.2301.0.0:_ZN4absl12lts_2023012513base_internal18ThrowStdOutOfRangeEPKc
libabsl_throw_delegate.so.2301.0.0:_ZN4absl12lts_2023012513base_internal18ThrowStdOutOfRangeERKNSt7__cxx1112basic_stringIcSt11char_traitsIcESaIcEEE
libabsl_throw_delegate.so.2301.0.0:_ZN4absl12lts_2023012513base_internal18ThrowStdRangeErrorEPKc
libabsl_throw_delegate.so.2301.0.0:_ZN4absl12lts_2023012513base_internal18ThrowStdRangeErrorERKNSt7__cxx1112basic_stringIcSt11char_traitsIcESaIcEEE
libabsl_throw_delegate.so.2301.0.0:_ZN4absl12lts_2023012513base_internal19ThrowStdDomainErrorEPKc
libabsl_throw_delegate.so.2301.0.0:_ZN4absl12lts_2023012513base_internal19ThrowStdDomainErrorERKNSt7__cxx1112basic_stringIcSt11char_traitsIcESaIcEEE
libabsl_throw_delegate.so.2301.0.0:_ZN4absl12lts_2023012513base_internal19ThrowStdLengthErrorEPKc
libabsl_throw_delegate.so.2301.0.0:_ZN4absl12lts_2023012513base_internal19ThrowStdLengthErrorERKNSt7__cxx1112basic_stringIcSt11char_traitsIcESaIcEEE
libabsl_throw_delegate.so.2301.0.0:_ZN4absl12lts_2023012513base_internal20ThrowStdRuntimeErrorEPKc
libabsl_throw_delegate.so.2301.0.0:_ZN4absl12lts_2023012513base_internal20ThrowStdRuntimeErrorERKNSt7__cxx1112basic_stringIcSt11char_traitsIcESaIcEEE
libabsl_throw_delegate.so.2301.0.0:_ZN4absl12lts_2023012513base_internal21ThrowStdOverflowErrorEPKc
libabsl_throw_delegate.so.2301.0.0:_ZN4absl12lts_2023012513base_internal21ThrowStdOverflowErrorERKNSt7__cxx1112basic_stringIcSt11char_traitsIcESaIcEEE
libabsl_throw_delegate.so.2301.0.0:_ZN4absl12lts_2023012513base_internal22ThrowStdUnderflowErrorEPKc
libabsl_throw_delegate.so.2301.0.0:_ZN4absl12lts_2023012513base_internal22ThrowStdUnderflowErrorERKNSt7__cxx1112basic_stringIcSt11char_traitsIcESaIcEEE
libabsl_throw_delegate.so.2301.0.0:_ZN4absl12lts_2023012513base_internal23ThrowStdBadFunctionCallEv
libabsl_throw_delegate.so.2301.0.0:_ZN4absl12lts_2023012513base_internal23ThrowStdInvalidArgumentEPKc
libabsl_throw_delegate.so.2301.0.0:_ZN4absl12lts_2023012513base_internal23ThrowStdInvalidArgumentERKNSt7__cxx1112basic_stringIcSt11char_traitsIcESaIcEEE
libabsl_time.so.2301.0.0:AbslInternalSleepFor_lts_20230125
libabsl_time.so.2301.0.0:_ZN4absl12lts_2023012510FormatTimeB5cxx11ENS0_4TimeE
libabsl_time.so.2301.0.0:_ZN4absl12lts_2023012510FormatTimeB5cxx11ENS0_4TimeENS0_8TimeZoneE
libabsl_time.so.2301.0.0:_ZN4absl12lts_2023012510FormatTimeB5cxx11ESt17basic_string_viewIcSt11char_traitsIcEENS0_4TimeENS0_8TimeZoneE
libabsl_time.so.2301.0.0:_ZN4absl12lts_2023012510FromChronoERKNSt6chrono10time_pointINS1_3_V212system_clockENS1_8durationIlSt5ratioILl1ELl1000000000EEEEEE
libabsl_time.so.2301.0.0:_ZN4absl12lts_2023012510ToTimespecENS0_4TimeE
libabsl_time.so.2301.0.0:_ZN4absl12lts_2023012510ToTimespecENS0_8DurationE
libabsl_time.so.2301.0.0:_ZN4absl12lts_2023012511ToUniversalENS0_4TimeE
libabsl_time.so.2301.0.0:_ZN4absl12lts_2023012511ToUnixNanosENS0_4TimeE
libabsl_time.so.2301.0.0:_ZN4absl12lts_2023012511UnparseFlagB5cxx11ENS0_4TimeE
libabsl_time.so.2301.0.0:_ZN4absl12lts_2023012511UnparseFlagB5cxx11ENS0_8DurationE
libabsl_time.so.2301.0.0:_ZN4absl12lts_2023012512FDivDurationENS0_8DurationES1_
libabsl_time.so.2301.0.0:_ZN4absl12lts_2023012512ToChronoTimeENS0_4TimeE
libabsl_time.so.2301.0.0:_ZN4absl12lts_2023012512ToInt64HoursENS0_8DurationE
libabsl_time.so.2301.0.0:_ZN4absl12lts_2023012512ToUnixMicrosENS0_4TimeE
libabsl_time.so.2301.0.0:_ZN4absl12lts_2023012512ToUnixMillisENS0_4TimeE
libabsl_time.so.2301.0.0:_ZN4absl12lts_2023012513AbslParseFlagESt17basic_string_viewIcSt11char_traitsIcEEPNS0_4TimeEPNSt7__cxx1112basic_stringIcS3_SaIcEEE
libabsl_time.so.2301.0.0:_ZN4absl12lts_2023012513AbslParseFlagESt17basic_string_viewIcSt11char_traitsIcEEPNS0_8DurationEPNSt7__cxx1112basic_stringIcS3_SaIcEEE
libabsl_time.so.2301.0.0:_ZN4absl12lts_2023012513FromUniversalEl
libabsl_time.so.2301.0.0:_ZN4absl12lts_2023012513ParseDurationESt17basic_string_viewIcSt11char_traitsIcEEPNS0_8DurationE
libabsl_time.so.2301.0.0:_ZN4absl12lts_2023012513ToChronoHoursENS0_8DurationE
libabsl_time.so.2301.0.0:_ZN4absl12lts_2023012513ToDoubleHoursENS0_8DurationE
libabsl_time.so.2301.0.0:_ZN4absl12lts_2023012513ToUnixSecondsENS0_4TimeE
libabsl_time.so.2301.0.0:_ZN4absl12lts_2023012513time_internal12IDivDurationEbNS0_8DurationES2_PS2_
libabsl_time.so.2301.0.0:_ZN4absl12lts_2023012513time_internal13AbslParseFlagESt17basic_string_viewIcSt11char_traitsIcEEPNS1_4cctz6detail10civil_timeINS1_10minute_tagEEEPNSt7__cxx1112basic_stringIcS4_SaIcEEE
libabsl_time.so.2301.0.0:_ZN4absl12lts_2023012513time_internal13AbslParseFlagESt17basic_string_viewIcSt11char_traitsIcEEPNS1_4cctz6detail10civil_timeINS1_10second_tagEEEPNSt7__cxx1112basic_stringIcS4_SaIcEEE
libabsl_time.so.2301.0.0:_ZN4absl12lts_2023012513time_internal13AbslParseFlagESt17basic_string_viewIcSt11char_traitsIcEEPNS1_4cctz6detail10civil_timeINS1_7day_tagEEEPNSt7__cxx1112basic_stringIcS4_SaIcEEE
libabsl_time.so.2301.0.0:_ZN4absl12lts_2023012513time_internal13AbslParseFlagESt17basic_string_viewIcSt11char_traitsIcEEPNS1_4cctz6detail10civil_timeINS1_8hour_tagEEEPNSt7__cxx1112basic_stringIcS4_SaIcEEE
libabsl_time.so.2301.0.0:_ZN4absl12lts_2023012513time_internal13AbslParseFlagESt17basic_string_viewIcSt11char_traitsIcEEPNS1_4cctz6detail10civil_timeINS1_8year_tagEEEPNSt7__cxx1112basic_stringIcS4_SaIcEEE
libabsl_time.so.2301.0.0:_ZN4absl12lts_2023012513time_internal13AbslParseFlagESt17basic_string_viewIcSt11char_traitsIcEEPNS1_4cctz6detail10civil_timeINS1_9month_tagEEEPNSt7__cxx1112basic_stringIcS4_SaIcEEE
libabsl_time.so.2301.0.0:_ZN4absl12lts_2023012513time_internal15AbslUnparseFlagB5cxx11ENS1_4cctz6detail10civil_timeINS1_10minute_tagEEE
libabsl_time.so.2301.0.0:_ZN4absl12lts_2023012513time_internal15AbslUnparseFlagB5cxx11ENS1_4cctz6detail10civil_timeINS1_10second_tagEEE
libabsl_time.so.2301.0.0:_ZN4absl12lts_2023012513time_internal15AbslUnparseFlagB5cxx11ENS1_4cctz6detail10civil_timeINS1_7day_tagEEE
libabsl_time.so.2301.0.0:_ZN4absl12lts_2023012513time_internal15AbslUnparseFlagB5cxx11ENS1_4cctz6detail10civil_timeINS1_8hour_tagEEE
libabsl_time.so.2301.0.0:_ZN4absl12lts_2023012513time_internal15AbslUnparseFlagB5cxx11ENS1_4cctz6detail10civil_timeINS1_8year_tagEEE
libabsl_time.so.2301.0.0:_ZN4absl12lts_2023012513time_internal15AbslUnparseFlagB5cxx11ENS1_4cctz6detail10civil_timeINS1_9month_tagEEE
libabsl_time.so.2301.0.0:_ZN4absl12lts_2023012513time_internallsERSoNS1_4cctz6detail10civil_timeINS1_10minute_tagEEE
libabsl_time.so.2301.0.0:_ZN4absl12lts_2023012513time_internallsERSoNS1_4cctz6detail10civil_timeINS1_10second_tagEEE
libabsl_time.so.2301.0.0:_ZN4absl12lts_2023012513time_internallsERSoNS1_4cctz6detail10civil_timeINS1_7day_tagEEE
libabsl_time.so.2301.0.0:_ZN4absl12lts_2023012513time_internallsERSoNS1_4cctz6detail10civil_timeINS1_8hour_tagEEE
libabsl_time.so.2301.0.0:_ZN4absl12lts_2023012513time_internallsERSoNS1_4cctz6detail10civil_timeINS1_8year_tagEEE
libabsl_time.so.2301.0.0:_ZN4absl12lts_2023012513time_internallsERSoNS1_4cctz6detail10civil_timeINS1_9month_tagEEE
libabsl_time.so.2301.0.0:_ZN4absl12lts_2023012514FormatDurationB5cxx11ENS0_8DurationE
libabsl_time.so.2301.0.0:_ZN4absl12lts_2023012514ParseCivilTimeESt17basic_string_viewIcSt11char_traitsIcEEPNS0_13time_internal4cctz6detail10civil_timeINS5_10minute_tagEEE
libabsl_time.so.2301.0.0:_ZN4absl12lts_2023012514ParseCivilTimeESt17basic_string_viewIcSt11char_traitsIcEEPNS0_13time_internal4cctz6detail10civil_timeINS5_10second_tagEEE
libabsl_time.so.2301.0.0:_ZN4absl12lts_2023012514ParseCivilTimeESt17basic_string_viewIcSt11char_traitsIcEEPNS0_13time_internal4cctz6detail10civil_timeINS5_7day_tagEEE
libabsl_time.so.2301.0.0:_ZN4absl12lts_2023012514ParseCivilTimeESt17basic_string_viewIcSt11char_traitsIcEEPNS0_13time_internal4cctz6detail10civil_timeINS5_8hour_tagEEE
libabsl_time.so.2301.0.0:_ZN4absl12lts_2023012514ParseCivilTimeESt17basic_string_viewIcSt11char_traitsIcEEPNS0_13time_internal4cctz6detail10civil_timeINS5_8year_tagEEE
libabsl_time.so.2301.0.0:_ZN4absl12lts_2023012514ParseCivilTimeESt17basic_string_viewIcSt11char_traitsIcEEPNS0_13time_internal4cctz6detail10civil_timeINS5_9month_tagEEE
libabsl_time.so.2301.0.0:_ZN4absl12lts_2023012514ToInt64MinutesENS0_8DurationE
libabsl_time.so.2301.0.0:_ZN4absl12lts_2023012514ToInt64SecondsENS0_8DurationE
libabsl_time.so.2301.0.0:_ZN4absl12lts_2023012515AbslUnparseFlagB5cxx11ENS0_4TimeE
libabsl_time.so.2301.0.0:_ZN4absl12lts_2023012515AbslUnparseFlagB5cxx11ENS0_8DurationE
libabsl_time.so.2301.0.0:_ZN4absl12lts_2023012515ConvertDateTimeEliiiiiNS0_8TimeZoneE
libabsl_time.so.2301.0.0:_ZN4absl12lts_2023012515FormatCivilTimeB5cxx11ENS0_13time_internal4cctz6detail10civil_timeINS1_10minute_tagEEE
libabsl_time.so.2301.0.0:_ZN4absl12lts_2023012515FormatCivilTimeB5cxx11ENS0_13time_internal4cctz6detail10civil_timeINS1_10second_tagEEE
libabsl_time.so.2301.0.0:_ZN4absl12lts_2023012515FormatCivilTimeB5cxx11ENS0_13time_internal4cctz6detail10civil_timeINS1_7day_tagEEE
libabsl_time.so.2301.0.0:_ZN4absl12lts_2023012515FormatCivilTimeB5cxx11ENS0_13time_internal4cctz6detail10civil_timeINS1_8hour_tagEEE
libabsl_time.so.2301.0.0:_ZN4absl12lts_2023012515FormatCivilTimeB5cxx11ENS0_13time_internal4cctz6detail10civil_timeINS1_8year_tagEEE
libabsl_time.so.2301.0.0:_ZN4absl12lts_2023012515FormatCivilTimeB5cxx11ENS0_13time_internal4cctz6detail10civil_timeINS1_9month_tagEEE
libabsl_time.so.2301.0.0:_ZN4absl12lts_2023012515TimeFromTimevalE7timeval
libabsl_time.so.2301.0.0:_ZN4absl12lts_2023012515ToChronoMinutesENS0_8DurationE
libabsl_time.so.2301.0.0:_ZN4absl12lts_2023012515ToChronoSecondsENS0_8DurationE
libabsl_time.so.2301.0.0:_ZN4absl12lts_2023012515ToDoubleMinutesENS0_8DurationE
libabsl_time.so.2301.0.0:_ZN4absl12lts_2023012515ToDoubleSecondsENS0_8DurationE
libabsl_time.so.2301.0.0:_ZN4absl12lts_2023012516TimeFromTimespecE8timespec
libabsl_time.so.2301.0.0:_ZN4absl12lts_2023012518ToInt64NanosecondsENS0_8DurationE
libabsl_time.so.2301.0.0:_ZN4absl12lts_2023012519DurationFromTimevalE7timeval
libabsl_time.so.2301.0.0:_ZN4absl12lts_2023012519GetCurrentTimeNanosEv
libabsl_time.so.2301.0.0:_ZN4absl12lts_2023012519ToChronoNanosecondsENS0_8DurationE
libabsl_time.so.2301.0.0:_ZN4absl12lts_2023012519ToDoubleNanosecondsENS0_8DurationE
libabsl_time.so.2301.0.0:_ZN4absl12lts_2023012519ToInt64MicrosecondsENS0_8DurationE
libabsl_time.so.2301.0.0:_ZN4absl12lts_2023012519ToInt64MillisecondsENS0_8DurationE
libabsl_time.so.2301.0.0:_ZN4absl12lts_2023012520DurationFromTimespecE8timespec
libabsl_time.so.2301.0.0:_ZN4absl12lts_2023012520ToChronoMicrosecondsENS0_8DurationE
libabsl_time.so.2301.0.0:_ZN4absl12lts_2023012520ToChronoMillisecondsENS0_8DurationE
libabsl_time.so.2301.0.0:_ZN4absl12lts_2023012520ToDoubleMicrosecondsENS0_8DurationE
libabsl_time.so.2301.0.0:_ZN4absl12lts_2023012520ToDoubleMillisecondsENS0_8DurationE
libabsl_time.so.2301.0.0:_ZN4absl12lts_2023012521ParseLenientCivilTimeESt17basic_string_viewIcSt11char_traitsIcEEPNS0_13time_internal4cctz6detail10civil_timeINS5_10minute_tagEEE
libabsl_time.so.2301.0.0:_ZN4absl12lts_2023012521ParseLenientCivilTimeESt17basic_string_viewIcSt11char_traitsIcEEPNS0_13time_internal4cctz6detail10civil_timeINS5_10second_tagEEE
libabsl_time.so.2301.0.0:_ZN4absl12lts_2023012521ParseLenientCivilTimeESt17basic_string_viewIcSt11char_traitsIcEEPNS0_13time_internal4cctz6detail10civil_timeINS5_7day_tagEEE
libabsl_time.so.2301.0.0:_ZN4absl12lts_2023012521ParseLenientCivilTimeESt17basic_string_viewIcSt11char_traitsIcEEPNS0_13time_internal4cctz6detail10civil_timeINS5_8hour_tagEEE
libabsl_time.so.2301.0.0:_ZN4absl12lts_2023012521ParseLenientCivilTimeESt17basic_string_viewIcSt11char_traitsIcEEPNS0_13time_internal4cctz6detail10civil_timeINS5_8year_tagEEE
libabsl_time.so.2301.0.0:_ZN4absl12lts_2023012521ParseLenientCivilTimeESt17basic_string_viewIcSt11char_traitsIcEEPNS0_13time_internal4cctz6detail10civil_timeINS5_9month_tagEEE
libabsl_time.so.2301.0.0:_ZN4absl12lts_202301253NowEv
libabsl_time.so.2301.0.0:_ZN4absl12lts_202301254CeilENS0_8DurationES1_
libabsl_time.so.2301.0.0:_ZN4absl12lts_202301254ToTMENS0_4TimeENS0_8TimeZoneE
libabsl_time.so.2301.0.0:_ZN4absl12lts_202301255FloorENS0_8DurationES1_
libabsl_time.so.2301.0.0:_ZN4absl12lts_202301255TruncENS0_8DurationES1_
libabsl_time.so.2301.0.0:_ZN4absl12lts_202301256FromTMERK2tmNS0_8TimeZoneE
libabsl_time.so.2301.0.0:_ZN4absl12lts_202301257ToTimeTENS0_4TimeE
libabsl_time.so.2301.0.0:_ZN4absl12lts_202301257ToUDateENS0_4TimeE
libabsl_time.so.2301.0.0:_ZN4absl12lts_202301258DurationdVEd
libabsl_time.so.2301.0.0:_ZN4absl12lts_202301258DurationdVEl
libabsl_time.so.2301.0.0:_ZN4absl12lts_202301258DurationmIES1_
libabsl_time.so.2301.0.0:_ZN4absl12lts_202301258DurationmLEd
libabsl_time.so.2301.0.0:_ZN4absl12lts_202301258DurationmLEl
libabsl_time.so.2301.0.0:_ZN4absl12lts_202301258DurationpLES1_
libabsl_time.so.2301.0.0:_ZN4absl12lts_202301258DurationrMES1_
libabsl_time.so.2301.0.0:_ZN4absl12lts_202301259FromUDateEd
libabsl_time.so.2301.0.0:_ZN4absl12lts_202301259ParseFlagERKNSt7__cxx1112basic_stringIcSt11char_traitsIcESaIcEEEPNS0_4TimeEPS6_
libabsl_time.so.2301.0.0:_ZN4absl12lts_202301259ParseFlagERKNSt7__cxx1112basic_stringIcSt11char_traitsIcESaIcEEEPNS0_8DurationEPS6_
libabsl_time.so.2301.0.0:_ZN4absl12lts_202301259ParseTimeESt17basic_string_viewIcSt11char_traitsIcEES4_NS0_8TimeZoneEPNS0_4TimeEPNSt7__cxx1112basic_stringIcS3_SaIcEEE
libabsl_time.so.2301.0.0:_ZN4absl12lts_202301259ParseTimeESt17basic_string_viewIcSt11char_traitsIcEES4_PNS0_4TimeEPNSt7__cxx1112basic_stringIcS3_SaIcEEE
libabsl_time.so.2301.0.0:_ZN4absl12lts_202301259ToTimevalENS0_4TimeE
libabsl_time.so.2301.0.0:_ZN4absl12lts_202301259ToTimevalENS0_8DurationE
libabsl_time.so.2301.0.0:_ZNK4absl12lts_202301254Time2InENS0_8TimeZoneE
libabsl_time.so.2301.0.0:_ZNK4absl12lts_202301258TimeZone14NextTransitionENS0_4TimeEPNS1_15CivilTransitionE
libabsl_time.so.2301.0.0:_ZNK4absl12lts_202301258TimeZone14PrevTransitionENS0_4TimeEPNS1_15CivilTransitionE
libabsl_time.so.2301.0.0:_ZNK4absl12lts_202301258TimeZone2AtENS0_13time_internal4cctz6detail10civil_timeINS2_10second_tagEEE
libabsl_time.so.2301.0.0:_ZNK4absl12lts_202301258TimeZone2AtENS0_4TimeE
libabsl_time_zone.so.2301.0.0:_ZN4absl12lts_2023012513time_internal4cctz10TimeZoneIf4LoadERKNSt7__cxx1112basic_stringIcSt11char_traitsIcESaIcEEE
libabsl_time_zone.so.2301.0.0:_ZN4absl12lts_2023012513time_internal4cctz10TimeZoneIfD0Ev
libabsl_time_zone.so.2301.0.0:_ZN4absl12lts_2023012513time_internal4cctz10TimeZoneIfD1Ev
libabsl_time_zone.so.2301.0.0:_ZN4absl12lts_2023012513time_internal4cctz10TimeZoneIfD2Ev
libabsl_time_zone.so.2301.0.0:_ZN4absl12lts_2023012513time_internal4cctz12TimeZoneInfo17ExtendTransitionsEv
libabsl_time_zone.so.2301.0.0:_ZN4absl12lts_2023012513time_internal4cctz12TimeZoneInfo17GetTransitionTypeElbRKNSt7__cxx1112basic_stringIcSt11char_traitsIcESaIcEEEPh
libabsl_time_zone.so.2301.0.0:_ZN4absl12lts_2023012513time_internal4cctz12TimeZoneInfo17ResetToBuiltinUTCERKNSt6chrono8durationIlSt5ratioILl1ELl1EEEE
libabsl_time_zone.so.2301.0.0:_ZN4absl12lts_2023012513time_internal4cctz12TimeZoneInfo4LoadEPNS2_14ZoneInfoSourceE
libabsl_time_zone.so.2301.0.0:_ZN4absl12lts_2023012513time_internal4cctz12TimeZoneInfo4LoadERKNSt7__cxx1112basic_stringIcSt11char_traitsIcESaIcEEE
libabsl_time_zone.so.2301.0.0:_ZN4absl12lts_2023012513time_internal4cctz12TimeZoneInfo6Header5BuildERK6tzhead
libabsl_time_zone.so.2301.0.0:_ZN4absl12lts_2023012513time_internal4cctz12TimeZoneLibCC1ERKNSt7__cxx1112basic_stringIcSt11char_traitsIcESaIcEEE
libabsl_time_zone.so.2301.0.0:_ZN4absl12lts_2023012513time_internal4cctz12TimeZoneLibCC2ERKNSt7__cxx1112basic_stringIcSt11char_traitsIcESaIcEEE
libabsl_time_zone.so.2301.0.0:_ZN4absl12lts_2023012513time_internal4cctz13utc_time_zoneEv
libabsl_time_zone.so.2301.0.0:_ZN4absl12lts_2023012513time_internal4cctz14ParsePosixSpecERKNSt7__cxx1112basic_stringIcSt11char_traitsIcESaIcEEEPNS2_13PosixTimeZoneE
libabsl_time_zone.so.2301.0.0:_ZN4absl12lts_2023012513time_internal4cctz14ZoneInfoSourceD0Ev
libabsl_time_zone.so.2301.0.0:_ZN4absl12lts_2023012513time_internal4cctz14ZoneInfoSourceD1Ev
libabsl_time_zone.so.2301.0.0:_ZN4absl12lts_2023012513time_internal4cctz14ZoneInfoSourceD2Ev
libabsl_time_zone.so.2301.0.0:_ZN4absl12lts_2023012513time_internal4cctz14load_time_zoneERKNSt7__cxx1112basic_stringIcSt11char_traitsIcESaIcEEEPNS2_9time_zoneE
libabsl_time_zone.so.2301.0.0:_ZN4absl12lts_2023012513time_internal4cctz15fixed_time_zoneERKNSt6chrono8durationIlSt5ratioILl1ELl1EEEE
libabsl_time_zone.so.2301.0.0:_ZN4absl12lts_2023012513time_internal4cctz15local_time_zoneEv
libabsl_time_zone.so.2301.0.0:_ZN4absl12lts_2023012513time_internal4cctz17FixedOffsetToAbbrB5cxx11ERKNSt6chrono8durationIlSt5ratioILl1ELl1EEEE
libabsl_time_zone.so.2301.0.0:_ZN4absl12lts_2023012513time_internal4cctz17FixedOffsetToNameB5cxx11ERKNSt6chrono8durationIlSt5ratioILl1ELl1EEEE
libabsl_time_zone.so.2301.0.0:_ZN4absl12lts_2023012513time_internal4cctz19FixedOffsetFromNameERKNSt7__cxx1112basic_stringIcSt11char_traitsIcESaIcEEEPNSt6chrono8durationIlSt5ratioILl1ELl1EEEE
libabsl_time_zone.so.2301.0.0:_ZN4absl12lts_2023012513time_internal4cctz6detail5parseERKNSt7__cxx1112basic_stringIcSt11char_traitsIcESaIcEEESB_RKNS2_9time_zoneEPNSt6chrono10time_pointINSF_3_V212system_clockENSF_8durationIlSt5ratioILl1ELl1EEEEEEPNSJ_IlSK_ILl1ELl1000000000000000EEEEPS9_
libabsl_time_zone.so.2301.0.0:_ZN4absl12lts_2023012513time_internal4cctz6detail6formatERKNSt7__cxx1112basic_stringIcSt11char_traitsIcESaIcEEERKNSt6chrono10time_pointINSC_3_V212system_clockENSC_8durationIlSt5ratioILl1ELl1EEEEEERKNSG_IlSH_ILl1ELl1000000000000000EEEERKNS2_9time_zoneE
libabsl_time_zone.so.2301.0.0:_ZN4absl12lts_2023012513time_internal4cctz9time_zone4Impl12LoadTimeZoneERKNSt7__cxx1112basic_stringIcSt11char_traitsIcESaIcEEEPS3_
libabsl_time_zone.so.2301.0.0:_ZN4absl12lts_2023012513time_internal4cctz9time_zone4Impl24ClearTimeZoneMapTestOnlyEv
libabsl_time_zone.so.2301.0.0:_ZN4absl12lts_2023012513time_internal4cctz9time_zone4Impl3UTCEv
libabsl_time_zone.so.2301.0.0:_ZN4absl12lts_2023012513time_internal4cctz9time_zone4Impl7UTCImplEv
libabsl_time_zone.so.2301.0.0:_ZN4absl12lts_2023012513time_internal4cctz9time_zone4ImplC1ERKNSt7__cxx1112basic_stringIcSt11char_traitsIcESaIcEEE
libabsl_time_zone.so.2301.0.0:_ZN4absl12lts_2023012513time_internal4cctz9time_zone4ImplC2ERKNSt7__cxx1112basic_stringIcSt11char_traitsIcESaIcEEE
libabsl_time_zone.so.2301.0.0:_ZNK4absl12lts_2023012513time_internal4cctz12TimeZoneInfo11DescriptionB5cxx11Ev
libabsl_time_zone.so.2301.0.0:_ZNK4absl12lts_2023012513time_internal4cctz12TimeZoneInfo14NextTransitionERKNSt6chrono10time_pointINS4_3_V212system_clockENS4_8durationIlSt5ratioILl1ELl1EEEEEEPNS2_9time_zone16civil_transitionE
libabsl_time_zone.so.2301.0.0:_ZNK4absl12lts_2023012513time_internal4cctz12TimeZoneInfo14PrevTransitionERKNSt6chrono10time_pointINS4_3_V212system_clockENS4_8durationIlSt5ratioILl1ELl1EEEEEEPNS2_9time_zone16civil_transitionE
libabsl_time_zone.so.2301.0.0:_ZNK4absl12lts_2023012513time_internal4cctz12TimeZoneInfo16EquivTransitionsEhh
libabsl_time_zone.so.2301.0.0:_ZNK4absl12lts_2023012513time_internal4cctz12TimeZoneInfo6Header10DataLengthEm
libabsl_time_zone.so.2301.0.0:_ZNK4absl12lts_2023012513time_internal4cctz12TimeZoneInfo7VersionB5cxx11Ev
libabsl_time_zone.so.2301.0.0:_ZNK4absl12lts_2023012513time_internal4cctz12TimeZoneInfo8MakeTimeERKNS2_6detail10civil_timeINS4_10second_tagEEE
libabsl_time_zone.so.2301.0.0:_ZNK4absl12lts_2023012513time_internal4cctz12TimeZoneInfo9BreakTimeERKNSt6chrono10time_pointINS4_3_V212system_clockENS4_8durationIlSt5ratioILl1ELl1EEEEEE
libabsl_time_zone.so.2301.0.0:_ZNK4absl12lts_2023012513time_internal4cctz12TimeZoneInfo9LocalTimeElRKNS2_10TransitionE
libabsl_time_zone.so.2301.0.0:_ZNK4absl12lts_2023012513time_internal4cctz12TimeZoneInfo9LocalTimeElRKNS2_14TransitionTypeE
libabsl_time_zone.so.2301.0.0:_ZNK4absl12lts_2023012513time_internal4cctz12TimeZoneInfo9TimeLocalERKNS2_6detail10civil_timeINS4_10second_tagEEEl
libabsl_time_zone.so.2301.0.0:_ZNK4absl12lts_2023012513time_internal4cctz12TimeZoneLibC11DescriptionB5cxx11Ev
libabsl_time_zone.so.2301.0.0:_ZNK4absl12lts_2023012513time_internal4cctz12TimeZoneLibC14NextTransitionERKNSt6chrono10time_pointINS4_3_V212system_clockENS4_8durationIlSt5ratioILl1ELl1EEEEEEPNS2_9time_zone16civil_transitionE
libabsl_time_zone.so.2301.0.0:_ZNK4absl12lts_2023012513time_internal4cctz12TimeZoneLibC14PrevTransitionERKNSt6chrono10time_pointINS4_3_V212system_clockENS4_8durationIlSt5ratioILl1ELl1EEEEEEPNS2_9time_zone16civil_transitionE
libabsl_time_zone.so.2301.0.0:_ZNK4absl12lts_2023012513time_internal4cctz12TimeZoneLibC7VersionB5cxx11Ev
libabsl_time_zone.so.2301.0.0:_ZNK4absl12lts_2023012513time_internal4cctz12TimeZoneLibC8MakeTimeERKNS2_6detail10civil_timeINS4_10second_tagEEE
libabsl_time_zone.so.2301.0.0:_ZNK4absl12lts_2023012513time_internal4cctz12TimeZoneLibC9BreakTimeERKNSt6chrono10time_pointINS4_3_V212system_clockENS4_8durationIlSt5ratioILl1ELl1EEEEEE
libabsl_time_zone.so.2301.0.0:_ZNK4absl12lts_2023012513time_internal4cctz14ZoneInfoSource7VersionB5cxx11Ev
libabsl_time_zone.so.2301.0.0:_ZNK4absl12lts_2023012513time_internal4cctz9time_zone11descriptionB5cxx11Ev
libabsl_time_zone.so.2301.0.0:_ZNK4absl12lts_2023012513time_internal4cctz9time_zone14effective_implEv
libabsl_time_zone.so.2301.0.0:_ZNK4absl12lts_2023012513time_internal4cctz9time_zone15next_transitionERKNSt6chrono10time_pointINS4_3_V212system_clockENS4_8durationIlSt5ratioILl1ELl1EEEEEEPNS3_16civil_transitionE
libabsl_time_zone.so.2301.0.0:_ZNK4absl12lts_2023012513time_internal4cctz9time_zone15prev_transitionERKNSt6chrono10time_pointINS4_3_V212system_clockENS4_8durationIlSt5ratioILl1ELl1EEEEEEPNS3_16civil_transitionE
libabsl_time_zone.so.2301.0.0:_ZNK4absl12lts_2023012513time_internal4cctz9time_zone4nameB5cxx11Ev
libabsl_time_zone.so.2301.0.0:_ZNK4absl12lts_2023012513time_internal4cctz9time_zone6lookupERKNS2_6detail10civil_timeINS4_10second_tagEEE
libabsl_time_zone.so.2301.0.0:_ZNK4absl12lts_2023012513time_internal4cctz9time_zone6lookupERKNSt6chrono10time_pointINS4_3_V212system_clockENS4_8durationIlSt5ratioILl1ELl1EEEEEE
libabsl_time_zone.so.2301.0.0:_ZNK4absl12lts_2023012513time_internal4cctz9time_zone7versionB5cxx11Ev
